
WRadio.elf:     file format elf32-littlearm

Sections:
Idx Name          Size      VMA       LMA       File off  Algn
  0 .isr_vector   000000c0  08000000  08000000  00001000  2**0
                  CONTENTS, ALLOC, LOAD, READONLY, DATA
  1 .text         00001d9c  080000c0  080000c0  000010c0  2**2
                  CONTENTS, ALLOC, LOAD, READONLY, CODE
  2 .rodata       00000030  08001e5c  08001e5c  00002e5c  2**0
                  CONTENTS, ALLOC, LOAD, READONLY, DATA
  3 .ARM.extab    00000000  08001e8c  08001e8c  0000300c  2**0
                  CONTENTS
  4 .ARM          00000000  08001e8c  08001e8c  0000300c  2**0
                  CONTENTS
  5 .preinit_array 00000000  08001e8c  08001e8c  0000300c  2**0
                  CONTENTS, ALLOC, LOAD, DATA
  6 .init_array   00000004  08001e8c  08001e8c  00002e8c  2**2
                  CONTENTS, ALLOC, LOAD, READONLY, DATA
  7 .fini_array   00000004  08001e90  08001e90  00002e90  2**2
                  CONTENTS, ALLOC, LOAD, READONLY, DATA
  8 .data         0000000c  20000000  08001e94  00003000  2**2
                  CONTENTS, ALLOC, LOAD, DATA
  9 .bss          00000310  2000000c  08001ea0  0000300c  2**2
                  ALLOC
 10 ._user_heap_stack 00000604  2000031c  08001ea0  0000331c  2**0
                  ALLOC
 11 .ARM.attributes 00000028  00000000  00000000  0000300c  2**0
                  CONTENTS, READONLY
 12 .debug_info   0000b429  00000000  00000000  00003034  2**0
                  CONTENTS, READONLY, DEBUGGING, OCTETS
 13 .debug_abbrev 00001fa6  00000000  00000000  0000e45d  2**0
                  CONTENTS, READONLY, DEBUGGING, OCTETS
 14 .debug_loclists 00005540  00000000  00000000  00010403  2**0
                  CONTENTS, READONLY, DEBUGGING, OCTETS
 15 .debug_aranges 00000918  00000000  00000000  00015948  2**3
                  CONTENTS, READONLY, DEBUGGING, OCTETS
 16 .debug_rnglists 00000995  00000000  00000000  00016260  2**0
                  CONTENTS, READONLY, DEBUGGING, OCTETS
 17 .debug_macro  0000f118  00000000  00000000  00016bf5  2**0
                  CONTENTS, READONLY, DEBUGGING, OCTETS
 18 .debug_line   0000dde4  00000000  00000000  00025d0d  2**0
                  CONTENTS, READONLY, DEBUGGING, OCTETS
 19 .debug_str    0005f2d0  00000000  00000000  00033af1  2**0
                  CONTENTS, READONLY, DEBUGGING, OCTETS
 20 .comment      00000043  00000000  00000000  00092dc1  2**0
                  CONTENTS, READONLY
 21 .debug_frame  00001850  00000000  00000000  00092e04  2**2
                  CONTENTS, READONLY, DEBUGGING, OCTETS
 22 .debug_line_str 00000054  00000000  00000000  00094654  2**0
                  CONTENTS, READONLY, DEBUGGING, OCTETS

Disassembly of section .text:

080000c0 <__do_global_dtors_aux>:
 80000c0:	b510      	push	{r4, lr}
 80000c2:	4c06      	ldr	r4, [pc, #24]	@ (80000dc <__do_global_dtors_aux+0x1c>)
 80000c4:	7823      	ldrb	r3, [r4, #0]
 80000c6:	2b00      	cmp	r3, #0
 80000c8:	d107      	bne.n	80000da <__do_global_dtors_aux+0x1a>
 80000ca:	4b05      	ldr	r3, [pc, #20]	@ (80000e0 <__do_global_dtors_aux+0x20>)
 80000cc:	2b00      	cmp	r3, #0
 80000ce:	d002      	beq.n	80000d6 <__do_global_dtors_aux+0x16>
 80000d0:	4804      	ldr	r0, [pc, #16]	@ (80000e4 <__do_global_dtors_aux+0x24>)
 80000d2:	e000      	b.n	80000d6 <__do_global_dtors_aux+0x16>
 80000d4:	bf00      	nop
 80000d6:	2301      	movs	r3, #1
 80000d8:	7023      	strb	r3, [r4, #0]
 80000da:	bd10      	pop	{r4, pc}
 80000dc:	2000000c 	.word	0x2000000c
 80000e0:	00000000 	.word	0x00000000
 80000e4:	08001e44 	.word	0x08001e44

080000e8 <frame_dummy>:
 80000e8:	4b04      	ldr	r3, [pc, #16]	@ (80000fc <frame_dummy+0x14>)
 80000ea:	b510      	push	{r4, lr}
 80000ec:	2b00      	cmp	r3, #0
 80000ee:	d003      	beq.n	80000f8 <frame_dummy+0x10>
 80000f0:	4903      	ldr	r1, [pc, #12]	@ (8000100 <frame_dummy+0x18>)
 80000f2:	4804      	ldr	r0, [pc, #16]	@ (8000104 <frame_dummy+0x1c>)
 80000f4:	e000      	b.n	80000f8 <frame_dummy+0x10>
 80000f6:	bf00      	nop
 80000f8:	bd10      	pop	{r4, pc}
 80000fa:	46c0      	nop			@ (mov r8, r8)
 80000fc:	00000000 	.word	0x00000000
 8000100:	20000010 	.word	0x20000010
 8000104:	08001e44 	.word	0x08001e44

08000108 <__gnu_thumb1_case_uqi>:
 8000108:	b402      	push	{r1}
 800010a:	4671      	mov	r1, lr
 800010c:	0849      	lsrs	r1, r1, #1
 800010e:	0049      	lsls	r1, r1, #1
 8000110:	5c09      	ldrb	r1, [r1, r0]
 8000112:	0049      	lsls	r1, r1, #1
 8000114:	448e      	add	lr, r1
 8000116:	bc02      	pop	{r1}
 8000118:	4770      	bx	lr
 800011a:	46c0      	nop			@ (mov r8, r8)

0800011c <__udivsi3>:
 800011c:	2200      	movs	r2, #0
 800011e:	0843      	lsrs	r3, r0, #1
 8000120:	428b      	cmp	r3, r1
 8000122:	d374      	bcc.n	800020e <__udivsi3+0xf2>
 8000124:	0903      	lsrs	r3, r0, #4
 8000126:	428b      	cmp	r3, r1
 8000128:	d35f      	bcc.n	80001ea <__udivsi3+0xce>
 800012a:	0a03      	lsrs	r3, r0, #8
 800012c:	428b      	cmp	r3, r1
 800012e:	d344      	bcc.n	80001ba <__udivsi3+0x9e>
 8000130:	0b03      	lsrs	r3, r0, #12
 8000132:	428b      	cmp	r3, r1
 8000134:	d328      	bcc.n	8000188 <__udivsi3+0x6c>
 8000136:	0c03      	lsrs	r3, r0, #16
 8000138:	428b      	cmp	r3, r1
 800013a:	d30d      	bcc.n	8000158 <__udivsi3+0x3c>
 800013c:	22ff      	movs	r2, #255	@ 0xff
 800013e:	0209      	lsls	r1, r1, #8
 8000140:	ba12      	rev	r2, r2
 8000142:	0c03      	lsrs	r3, r0, #16
 8000144:	428b      	cmp	r3, r1
 8000146:	d302      	bcc.n	800014e <__udivsi3+0x32>
 8000148:	1212      	asrs	r2, r2, #8
 800014a:	0209      	lsls	r1, r1, #8
 800014c:	d065      	beq.n	800021a <__udivsi3+0xfe>
 800014e:	0b03      	lsrs	r3, r0, #12
 8000150:	428b      	cmp	r3, r1
 8000152:	d319      	bcc.n	8000188 <__udivsi3+0x6c>
 8000154:	e000      	b.n	8000158 <__udivsi3+0x3c>
 8000156:	0a09      	lsrs	r1, r1, #8
 8000158:	0bc3      	lsrs	r3, r0, #15
 800015a:	428b      	cmp	r3, r1
 800015c:	d301      	bcc.n	8000162 <__udivsi3+0x46>
 800015e:	03cb      	lsls	r3, r1, #15
 8000160:	1ac0      	subs	r0, r0, r3
 8000162:	4152      	adcs	r2, r2
 8000164:	0b83      	lsrs	r3, r0, #14
 8000166:	428b      	cmp	r3, r1
 8000168:	d301      	bcc.n	800016e <__udivsi3+0x52>
 800016a:	038b      	lsls	r3, r1, #14
 800016c:	1ac0      	subs	r0, r0, r3
 800016e:	4152      	adcs	r2, r2
 8000170:	0b43      	lsrs	r3, r0, #13
 8000172:	428b      	cmp	r3, r1
 8000174:	d301      	bcc.n	800017a <__udivsi3+0x5e>
 8000176:	034b      	lsls	r3, r1, #13
 8000178:	1ac0      	subs	r0, r0, r3
 800017a:	4152      	adcs	r2, r2
 800017c:	0b03      	lsrs	r3, r0, #12
 800017e:	428b      	cmp	r3, r1
 8000180:	d301      	bcc.n	8000186 <__udivsi3+0x6a>
 8000182:	030b      	lsls	r3, r1, #12
 8000184:	1ac0      	subs	r0, r0, r3
 8000186:	4152      	adcs	r2, r2
 8000188:	0ac3      	lsrs	r3, r0, #11
 800018a:	428b      	cmp	r3, r1
 800018c:	d301      	bcc.n	8000192 <__udivsi3+0x76>
 800018e:	02cb      	lsls	r3, r1, #11
 8000190:	1ac0      	subs	r0, r0, r3
 8000192:	4152      	adcs	r2, r2
 8000194:	0a83      	lsrs	r3, r0, #10
 8000196:	428b      	cmp	r3, r1
 8000198:	d301      	bcc.n	800019e <__udivsi3+0x82>
 800019a:	028b      	lsls	r3, r1, #10
 800019c:	1ac0      	subs	r0, r0, r3
 800019e:	4152      	adcs	r2, r2
 80001a0:	0a43      	lsrs	r3, r0, #9
 80001a2:	428b      	cmp	r3, r1
 80001a4:	d301      	bcc.n	80001aa <__udivsi3+0x8e>
 80001a6:	024b      	lsls	r3, r1, #9
 80001a8:	1ac0      	subs	r0, r0, r3
 80001aa:	4152      	adcs	r2, r2
 80001ac:	0a03      	lsrs	r3, r0, #8
 80001ae:	428b      	cmp	r3, r1
 80001b0:	d301      	bcc.n	80001b6 <__udivsi3+0x9a>
 80001b2:	020b      	lsls	r3, r1, #8
 80001b4:	1ac0      	subs	r0, r0, r3
 80001b6:	4152      	adcs	r2, r2
 80001b8:	d2cd      	bcs.n	8000156 <__udivsi3+0x3a>
 80001ba:	09c3      	lsrs	r3, r0, #7
 80001bc:	428b      	cmp	r3, r1
 80001be:	d301      	bcc.n	80001c4 <__udivsi3+0xa8>
 80001c0:	01cb      	lsls	r3, r1, #7
 80001c2:	1ac0      	subs	r0, r0, r3
 80001c4:	4152      	adcs	r2, r2
 80001c6:	0983      	lsrs	r3, r0, #6
 80001c8:	428b      	cmp	r3, r1
 80001ca:	d301      	bcc.n	80001d0 <__udivsi3+0xb4>
 80001cc:	018b      	lsls	r3, r1, #6
 80001ce:	1ac0      	subs	r0, r0, r3
 80001d0:	4152      	adcs	r2, r2
 80001d2:	0943      	lsrs	r3, r0, #5
 80001d4:	428b      	cmp	r3, r1
 80001d6:	d301      	bcc.n	80001dc <__udivsi3+0xc0>
 80001d8:	014b      	lsls	r3, r1, #5
 80001da:	1ac0      	subs	r0, r0, r3
 80001dc:	4152      	adcs	r2, r2
 80001de:	0903      	lsrs	r3, r0, #4
 80001e0:	428b      	cmp	r3, r1
 80001e2:	d301      	bcc.n	80001e8 <__udivsi3+0xcc>
 80001e4:	010b      	lsls	r3, r1, #4
 80001e6:	1ac0      	subs	r0, r0, r3
 80001e8:	4152      	adcs	r2, r2
 80001ea:	08c3      	lsrs	r3, r0, #3
 80001ec:	428b      	cmp	r3, r1
 80001ee:	d301      	bcc.n	80001f4 <__udivsi3+0xd8>
 80001f0:	00cb      	lsls	r3, r1, #3
 80001f2:	1ac0      	subs	r0, r0, r3
 80001f4:	4152      	adcs	r2, r2
 80001f6:	0883      	lsrs	r3, r0, #2
 80001f8:	428b      	cmp	r3, r1
 80001fa:	d301      	bcc.n	8000200 <__udivsi3+0xe4>
 80001fc:	008b      	lsls	r3, r1, #2
 80001fe:	1ac0      	subs	r0, r0, r3
 8000200:	4152      	adcs	r2, r2
 8000202:	0843      	lsrs	r3, r0, #1
 8000204:	428b      	cmp	r3, r1
 8000206:	d301      	bcc.n	800020c <__udivsi3+0xf0>
 8000208:	004b      	lsls	r3, r1, #1
 800020a:	1ac0      	subs	r0, r0, r3
 800020c:	4152      	adcs	r2, r2
 800020e:	1a41      	subs	r1, r0, r1
 8000210:	d200      	bcs.n	8000214 <__udivsi3+0xf8>
 8000212:	4601      	mov	r1, r0
 8000214:	4152      	adcs	r2, r2
 8000216:	4610      	mov	r0, r2
 8000218:	4770      	bx	lr
 800021a:	e7ff      	b.n	800021c <__udivsi3+0x100>
 800021c:	b501      	push	{r0, lr}
 800021e:	2000      	movs	r0, #0
 8000220:	f000 f8f0 	bl	8000404 <__aeabi_idiv0>
 8000224:	bd02      	pop	{r1, pc}
 8000226:	46c0      	nop			@ (mov r8, r8)

08000228 <__aeabi_uidivmod>:
 8000228:	2900      	cmp	r1, #0
 800022a:	d0f7      	beq.n	800021c <__udivsi3+0x100>
 800022c:	e776      	b.n	800011c <__udivsi3>
 800022e:	4770      	bx	lr

08000230 <__divsi3>:
 8000230:	4603      	mov	r3, r0
 8000232:	430b      	orrs	r3, r1
 8000234:	d47f      	bmi.n	8000336 <__divsi3+0x106>
 8000236:	2200      	movs	r2, #0
 8000238:	0843      	lsrs	r3, r0, #1
 800023a:	428b      	cmp	r3, r1
 800023c:	d374      	bcc.n	8000328 <__divsi3+0xf8>
 800023e:	0903      	lsrs	r3, r0, #4
 8000240:	428b      	cmp	r3, r1
 8000242:	d35f      	bcc.n	8000304 <__divsi3+0xd4>
 8000244:	0a03      	lsrs	r3, r0, #8
 8000246:	428b      	cmp	r3, r1
 8000248:	d344      	bcc.n	80002d4 <__divsi3+0xa4>
 800024a:	0b03      	lsrs	r3, r0, #12
 800024c:	428b      	cmp	r3, r1
 800024e:	d328      	bcc.n	80002a2 <__divsi3+0x72>
 8000250:	0c03      	lsrs	r3, r0, #16
 8000252:	428b      	cmp	r3, r1
 8000254:	d30d      	bcc.n	8000272 <__divsi3+0x42>
 8000256:	22ff      	movs	r2, #255	@ 0xff
 8000258:	0209      	lsls	r1, r1, #8
 800025a:	ba12      	rev	r2, r2
 800025c:	0c03      	lsrs	r3, r0, #16
 800025e:	428b      	cmp	r3, r1
 8000260:	d302      	bcc.n	8000268 <__divsi3+0x38>
 8000262:	1212      	asrs	r2, r2, #8
 8000264:	0209      	lsls	r1, r1, #8
 8000266:	d065      	beq.n	8000334 <__divsi3+0x104>
 8000268:	0b03      	lsrs	r3, r0, #12
 800026a:	428b      	cmp	r3, r1
 800026c:	d319      	bcc.n	80002a2 <__divsi3+0x72>
 800026e:	e000      	b.n	8000272 <__divsi3+0x42>
 8000270:	0a09      	lsrs	r1, r1, #8
 8000272:	0bc3      	lsrs	r3, r0, #15
 8000274:	428b      	cmp	r3, r1
 8000276:	d301      	bcc.n	800027c <__divsi3+0x4c>
 8000278:	03cb      	lsls	r3, r1, #15
 800027a:	1ac0      	subs	r0, r0, r3
 800027c:	4152      	adcs	r2, r2
 800027e:	0b83      	lsrs	r3, r0, #14
 8000280:	428b      	cmp	r3, r1
 8000282:	d301      	bcc.n	8000288 <__divsi3+0x58>
 8000284:	038b      	lsls	r3, r1, #14
 8000286:	1ac0      	subs	r0, r0, r3
 8000288:	4152      	adcs	r2, r2
 800028a:	0b43      	lsrs	r3, r0, #13
 800028c:	428b      	cmp	r3, r1
 800028e:	d301      	bcc.n	8000294 <__divsi3+0x64>
 8000290:	034b      	lsls	r3, r1, #13
 8000292:	1ac0      	subs	r0, r0, r3
 8000294:	4152      	adcs	r2, r2
 8000296:	0b03      	lsrs	r3, r0, #12
 8000298:	428b      	cmp	r3, r1
 800029a:	d301      	bcc.n	80002a0 <__divsi3+0x70>
 800029c:	030b      	lsls	r3, r1, #12
 800029e:	1ac0      	subs	r0, r0, r3
 80002a0:	4152      	adcs	r2, r2
 80002a2:	0ac3      	lsrs	r3, r0, #11
 80002a4:	428b      	cmp	r3, r1
 80002a6:	d301      	bcc.n	80002ac <__divsi3+0x7c>
 80002a8:	02cb      	lsls	r3, r1, #11
 80002aa:	1ac0      	subs	r0, r0, r3
 80002ac:	4152      	adcs	r2, r2
 80002ae:	0a83      	lsrs	r3, r0, #10
 80002b0:	428b      	cmp	r3, r1
 80002b2:	d301      	bcc.n	80002b8 <__divsi3+0x88>
 80002b4:	028b      	lsls	r3, r1, #10
 80002b6:	1ac0      	subs	r0, r0, r3
 80002b8:	4152      	adcs	r2, r2
 80002ba:	0a43      	lsrs	r3, r0, #9
 80002bc:	428b      	cmp	r3, r1
 80002be:	d301      	bcc.n	80002c4 <__divsi3+0x94>
 80002c0:	024b      	lsls	r3, r1, #9
 80002c2:	1ac0      	subs	r0, r0, r3
 80002c4:	4152      	adcs	r2, r2
 80002c6:	0a03      	lsrs	r3, r0, #8
 80002c8:	428b      	cmp	r3, r1
 80002ca:	d301      	bcc.n	80002d0 <__divsi3+0xa0>
 80002cc:	020b      	lsls	r3, r1, #8
 80002ce:	1ac0      	subs	r0, r0, r3
 80002d0:	4152      	adcs	r2, r2
 80002d2:	d2cd      	bcs.n	8000270 <__divsi3+0x40>
 80002d4:	09c3      	lsrs	r3, r0, #7
 80002d6:	428b      	cmp	r3, r1
 80002d8:	d301      	bcc.n	80002de <__divsi3+0xae>
 80002da:	01cb      	lsls	r3, r1, #7
 80002dc:	1ac0      	subs	r0, r0, r3
 80002de:	4152      	adcs	r2, r2
 80002e0:	0983      	lsrs	r3, r0, #6
 80002e2:	428b      	cmp	r3, r1
 80002e4:	d301      	bcc.n	80002ea <__divsi3+0xba>
 80002e6:	018b      	lsls	r3, r1, #6
 80002e8:	1ac0      	subs	r0, r0, r3
 80002ea:	4152      	adcs	r2, r2
 80002ec:	0943      	lsrs	r3, r0, #5
 80002ee:	428b      	cmp	r3, r1
 80002f0:	d301      	bcc.n	80002f6 <__divsi3+0xc6>
 80002f2:	014b      	lsls	r3, r1, #5
 80002f4:	1ac0      	subs	r0, r0, r3
 80002f6:	4152      	adcs	r2, r2
 80002f8:	0903      	lsrs	r3, r0, #4
 80002fa:	428b      	cmp	r3, r1
 80002fc:	d301      	bcc.n	8000302 <__divsi3+0xd2>
 80002fe:	010b      	lsls	r3, r1, #4
 8000300:	1ac0      	subs	r0, r0, r3
 8000302:	4152      	adcs	r2, r2
 8000304:	08c3      	lsrs	r3, r0, #3
 8000306:	428b      	cmp	r3, r1
 8000308:	d301      	bcc.n	800030e <__divsi3+0xde>
 800030a:	00cb      	lsls	r3, r1, #3
 800030c:	1ac0      	subs	r0, r0, r3
 800030e:	4152      	adcs	r2, r2
 8000310:	0883      	lsrs	r3, r0, #2
 8000312:	428b      	cmp	r3, r1
 8000314:	d301      	bcc.n	800031a <__divsi3+0xea>
 8000316:	008b      	lsls	r3, r1, #2
 8000318:	1ac0      	subs	r0, r0, r3
 800031a:	4152      	adcs	r2, r2
 800031c:	0843      	lsrs	r3, r0, #1
 800031e:	428b      	cmp	r3, r1
 8000320:	d301      	bcc.n	8000326 <__divsi3+0xf6>
 8000322:	004b      	lsls	r3, r1, #1
 8000324:	1ac0      	subs	r0, r0, r3
 8000326:	4152      	adcs	r2, r2
 8000328:	1a41      	subs	r1, r0, r1
 800032a:	d200      	bcs.n	800032e <__divsi3+0xfe>
 800032c:	4601      	mov	r1, r0
 800032e:	4152      	adcs	r2, r2
 8000330:	4610      	mov	r0, r2
 8000332:	4770      	bx	lr
 8000334:	e05d      	b.n	80003f2 <__divsi3+0x1c2>
 8000336:	0fca      	lsrs	r2, r1, #31
 8000338:	d000      	beq.n	800033c <__divsi3+0x10c>
 800033a:	4249      	negs	r1, r1
 800033c:	1003      	asrs	r3, r0, #32
 800033e:	d300      	bcc.n	8000342 <__divsi3+0x112>
 8000340:	4240      	negs	r0, r0
 8000342:	4053      	eors	r3, r2
 8000344:	2200      	movs	r2, #0
 8000346:	469c      	mov	ip, r3
 8000348:	0903      	lsrs	r3, r0, #4
 800034a:	428b      	cmp	r3, r1
 800034c:	d32d      	bcc.n	80003aa <__divsi3+0x17a>
 800034e:	0a03      	lsrs	r3, r0, #8
 8000350:	428b      	cmp	r3, r1
 8000352:	d312      	bcc.n	800037a <__divsi3+0x14a>
 8000354:	22fc      	movs	r2, #252	@ 0xfc
 8000356:	0189      	lsls	r1, r1, #6
 8000358:	ba12      	rev	r2, r2
 800035a:	0a03      	lsrs	r3, r0, #8
 800035c:	428b      	cmp	r3, r1
 800035e:	d30c      	bcc.n	800037a <__divsi3+0x14a>
 8000360:	0189      	lsls	r1, r1, #6
 8000362:	1192      	asrs	r2, r2, #6
 8000364:	428b      	cmp	r3, r1
 8000366:	d308      	bcc.n	800037a <__divsi3+0x14a>
 8000368:	0189      	lsls	r1, r1, #6
 800036a:	1192      	asrs	r2, r2, #6
 800036c:	428b      	cmp	r3, r1
 800036e:	d304      	bcc.n	800037a <__divsi3+0x14a>
 8000370:	0189      	lsls	r1, r1, #6
 8000372:	d03a      	beq.n	80003ea <__divsi3+0x1ba>
 8000374:	1192      	asrs	r2, r2, #6
 8000376:	e000      	b.n	800037a <__divsi3+0x14a>
 8000378:	0989      	lsrs	r1, r1, #6
 800037a:	09c3      	lsrs	r3, r0, #7
 800037c:	428b      	cmp	r3, r1
 800037e:	d301      	bcc.n	8000384 <__divsi3+0x154>
 8000380:	01cb      	lsls	r3, r1, #7
 8000382:	1ac0      	subs	r0, r0, r3
 8000384:	4152      	adcs	r2, r2
 8000386:	0983      	lsrs	r3, r0, #6
 8000388:	428b      	cmp	r3, r1
 800038a:	d301      	bcc.n	8000390 <__divsi3+0x160>
 800038c:	018b      	lsls	r3, r1, #6
 800038e:	1ac0      	subs	r0, r0, r3
 8000390:	4152      	adcs	r2, r2
 8000392:	0943      	lsrs	r3, r0, #5
 8000394:	428b      	cmp	r3, r1
 8000396:	d301      	bcc.n	800039c <__divsi3+0x16c>
 8000398:	014b      	lsls	r3, r1, #5
 800039a:	1ac0      	subs	r0, r0, r3
 800039c:	4152      	adcs	r2, r2
 800039e:	0903      	lsrs	r3, r0, #4
 80003a0:	428b      	cmp	r3, r1
 80003a2:	d301      	bcc.n	80003a8 <__divsi3+0x178>
 80003a4:	010b      	lsls	r3, r1, #4
 80003a6:	1ac0      	subs	r0, r0, r3
 80003a8:	4152      	adcs	r2, r2
 80003aa:	08c3      	lsrs	r3, r0, #3
 80003ac:	428b      	cmp	r3, r1
 80003ae:	d301      	bcc.n	80003b4 <__divsi3+0x184>
 80003b0:	00cb      	lsls	r3, r1, #3
 80003b2:	1ac0      	subs	r0, r0, r3
 80003b4:	4152      	adcs	r2, r2
 80003b6:	0883      	lsrs	r3, r0, #2
 80003b8:	428b      	cmp	r3, r1
 80003ba:	d301      	bcc.n	80003c0 <__divsi3+0x190>
 80003bc:	008b      	lsls	r3, r1, #2
 80003be:	1ac0      	subs	r0, r0, r3
 80003c0:	4152      	adcs	r2, r2
 80003c2:	d2d9      	bcs.n	8000378 <__divsi3+0x148>
 80003c4:	0843      	lsrs	r3, r0, #1
 80003c6:	428b      	cmp	r3, r1
 80003c8:	d301      	bcc.n	80003ce <__divsi3+0x19e>
 80003ca:	004b      	lsls	r3, r1, #1
 80003cc:	1ac0      	subs	r0, r0, r3
 80003ce:	4152      	adcs	r2, r2
 80003d0:	1a41      	subs	r1, r0, r1
 80003d2:	d200      	bcs.n	80003d6 <__divsi3+0x1a6>
 80003d4:	4601      	mov	r1, r0
 80003d6:	4663      	mov	r3, ip
 80003d8:	4152      	adcs	r2, r2
 80003da:	105b      	asrs	r3, r3, #1
 80003dc:	4610      	mov	r0, r2
 80003de:	d301      	bcc.n	80003e4 <__divsi3+0x1b4>
 80003e0:	4240      	negs	r0, r0
 80003e2:	2b00      	cmp	r3, #0
 80003e4:	d500      	bpl.n	80003e8 <__divsi3+0x1b8>
 80003e6:	4249      	negs	r1, r1
 80003e8:	4770      	bx	lr
 80003ea:	4663      	mov	r3, ip
 80003ec:	105b      	asrs	r3, r3, #1
 80003ee:	d300      	bcc.n	80003f2 <__divsi3+0x1c2>
 80003f0:	4240      	negs	r0, r0
 80003f2:	b501      	push	{r0, lr}
 80003f4:	2000      	movs	r0, #0
 80003f6:	f000 f805 	bl	8000404 <__aeabi_idiv0>
 80003fa:	bd02      	pop	{r1, pc}

080003fc <__aeabi_idivmod>:
 80003fc:	2900      	cmp	r1, #0
 80003fe:	d0f8      	beq.n	80003f2 <__divsi3+0x1c2>
 8000400:	e716      	b.n	8000230 <__divsi3>
 8000402:	4770      	bx	lr

08000404 <__aeabi_idiv0>:
 8000404:	4770      	bx	lr
 8000406:	46c0      	nop			@ (mov r8, r8)

08000408 <SystemClock_Config>:
/**
  * @brief System Clock Configuration
  * @retval None
  */
void SystemClock_Config(void)
{
 8000408:	b570      	push	{r4, r5, r6, lr}
  RCC_OscInitTypeDef RCC_OscInitStruct = {0};
  RCC_ClkInitTypeDef RCC_ClkInitStruct = {0};
 800040a:	2610      	movs	r6, #16
{
 800040c:	b090      	sub	sp, #64	@ 0x40
  RCC_OscInitTypeDef RCC_OscInitStruct = {0};
 800040e:	222c      	movs	r2, #44	@ 0x2c
 8000410:	2100      	movs	r1, #0
 8000412:	a805      	add	r0, sp, #20
 8000414:	f001 fcea 	bl	8001dec <memset>
  RCC_ClkInitTypeDef RCC_ClkInitStruct = {0};
 8000418:	0032      	movs	r2, r6
 800041a:	2100      	movs	r1, #0
 800041c:	4668      	mov	r0, sp
 800041e:	f001 fce5 	bl	8001dec <memset>
  RCC_OscInitStruct.OscillatorType = RCC_OSCILLATORTYPE_HSI;
  RCC_OscInitStruct.HSIState = RCC_HSI_ON;
  RCC_OscInitStruct.HSICalibrationValue = RCC_HSICALIBRATION_DEFAULT;
  RCC_OscInitStruct.PLL.PLLState = RCC_PLL_ON;
  RCC_OscInitStruct.PLL.PLLSource = RCC_PLLSOURCE_HSI;
  RCC_OscInitStruct.PLL.PLLMUL = RCC_PLL_MUL12;
 8000422:	23a0      	movs	r3, #160	@ 0xa0
  RCC_OscInitStruct.OscillatorType = RCC_OSCILLATORTYPE_HSI;
 8000424:	2402      	movs	r4, #2
  RCC_OscInitStruct.HSIState = RCC_HSI_ON;
 8000426:	2501      	movs	r5, #1
  RCC_OscInitStruct.PLL.PLLMUL = RCC_PLL_MUL12;
 8000428:	039b      	lsls	r3, r3, #14
  RCC_OscInitStruct.PLL.PREDIV = RCC_PREDIV_DIV1;
  if (HAL_RCC_OscConfig(&RCC_OscInitStruct) != HAL_OK)
 800042a:	a804      	add	r0, sp, #16
  RCC_OscInitStruct.OscillatorType = RCC_OSCILLATORTYPE_HSI;
 800042c:	9404      	str	r4, [sp, #16]
  RCC_OscInitStruct.HSIState = RCC_HSI_ON;
 800042e:	9507      	str	r5, [sp, #28]
  RCC_OscInitStruct.HSICalibrationValue = RCC_HSICALIBRATION_DEFAULT;
 8000430:	9608      	str	r6, [sp, #32]
  RCC_OscInitStruct.PLL.PLLState = RCC_PLL_ON;
 8000432:	940c      	str	r4, [sp, #48]	@ 0x30
  RCC_OscInitStruct.PLL.PLLMUL = RCC_PLL_MUL12;
 8000434:	930e      	str	r3, [sp, #56]	@ 0x38
  if (HAL_RCC_OscConfig(&RCC_OscInitStruct) != HAL_OK)
 8000436:	f000 fd0b 	bl	8000e50 <HAL_RCC_OscConfig>
 800043a:	2800      	cmp	r0, #0
 800043c:	d001      	beq.n	8000442 <SystemClock_Config+0x3a>
  \details Disables IRQ interrupts by setting the I-bit in the CPSR.
           Can only be executed in Privileged modes.
 */
__STATIC_FORCEINLINE void __disable_irq(void)
{
  __ASM volatile ("cpsid i" : : : "memory");
 800043e:	b672      	cpsid	i
void Error_Handler(void)
{
  /* USER CODE BEGIN Error_Handler_Debug */
  /* User can add his own implementation to report the HAL error return state */
  __disable_irq();
  while (1)
 8000440:	e7fe      	b.n	8000440 <SystemClock_Config+0x38>
  RCC_ClkInitStruct.ClockType = RCC_CLOCKTYPE_HCLK|RCC_CLOCKTYPE_SYSCLK
 8000442:	2307      	movs	r3, #7
  RCC_ClkInitStruct.AHBCLKDivider = RCC_SYSCLK_DIV1;
 8000444:	9002      	str	r0, [sp, #8]
  RCC_ClkInitStruct.APB1CLKDivider = RCC_HCLK_DIV1;
 8000446:	9003      	str	r0, [sp, #12]
  if (HAL_RCC_ClockConfig(&RCC_ClkInitStruct, FLASH_LATENCY_1) != HAL_OK)
 8000448:	0029      	movs	r1, r5
 800044a:	4668      	mov	r0, sp
  RCC_ClkInitStruct.ClockType = RCC_CLOCKTYPE_HCLK|RCC_CLOCKTYPE_SYSCLK
 800044c:	9300      	str	r3, [sp, #0]
  RCC_ClkInitStruct.SYSCLKSource = RCC_SYSCLKSOURCE_PLLCLK;
 800044e:	9401      	str	r4, [sp, #4]
  if (HAL_RCC_ClockConfig(&RCC_ClkInitStruct, FLASH_LATENCY_1) != HAL_OK)
 8000450:	f000 ff22 	bl	8001298 <HAL_RCC_ClockConfig>
 8000454:	2800      	cmp	r0, #0
 8000456:	d001      	beq.n	800045c <SystemClock_Config+0x54>
 8000458:	b672      	cpsid	i
  while (1)
 800045a:	e7fe      	b.n	800045a <SystemClock_Config+0x52>
}
 800045c:	b010      	add	sp, #64	@ 0x40
 800045e:	bd70      	pop	{r4, r5, r6, pc}

08000460 <main>:
{
 8000460:	b530      	push	{r4, r5, lr}
 8000462:	b091      	sub	sp, #68	@ 0x44
  HAL_Init();
 8000464:	f000 fae0 	bl	8000a28 <HAL_Init>
  SystemClock_Config();
 8000468:	f7ff ffce 	bl	8000408 <SystemClock_Config>
  GPIO_InitTypeDef GPIO_InitStruct = {0};
 800046c:	2210      	movs	r2, #16
 800046e:	2100      	movs	r1, #0
 8000470:	a80a      	add	r0, sp, #40	@ 0x28
 8000472:	f001 fcbb 	bl	8001dec <memset>
  __HAL_RCC_GPIOA_CLK_ENABLE();
 8000476:	2280      	movs	r2, #128	@ 0x80
  HAL_GPIO_Init(GPIOA, &GPIO_InitStruct);
 8000478:	2090      	movs	r0, #144	@ 0x90
  GPIO_InitStruct.Pin = GPIO_PIN_0;
 800047a:	2501      	movs	r5, #1
  __HAL_RCC_GPIOA_CLK_ENABLE();
 800047c:	4c59      	ldr	r4, [pc, #356]	@ (80005e4 <main+0x184>)
 800047e:	0292      	lsls	r2, r2, #10
 8000480:	6963      	ldr	r3, [r4, #20]
  HAL_GPIO_Init(GPIOA, &GPIO_InitStruct);
 8000482:	a909      	add	r1, sp, #36	@ 0x24
  __HAL_RCC_GPIOA_CLK_ENABLE();
 8000484:	4313      	orrs	r3, r2
 8000486:	6163      	str	r3, [r4, #20]
 8000488:	6963      	ldr	r3, [r4, #20]
  HAL_GPIO_Init(GPIOA, &GPIO_InitStruct);
 800048a:	05c0      	lsls	r0, r0, #23
  __HAL_RCC_GPIOA_CLK_ENABLE();
 800048c:	4013      	ands	r3, r2
 800048e:	9302      	str	r3, [sp, #8]
 8000490:	9b02      	ldr	r3, [sp, #8]
  GPIO_InitStruct.Pin = GPIO_PIN_0;
 8000492:	9509      	str	r5, [sp, #36]	@ 0x24
  HAL_GPIO_Init(GPIOA, &GPIO_InitStruct);
 8000494:	f000 fc24 	bl	8000ce0 <HAL_GPIO_Init>
  HAL_NVIC_SetPriority(DMA1_Channel4_5_IRQn, 0, 0);
 8000498:	2200      	movs	r2, #0
  __HAL_RCC_DMA1_CLK_ENABLE();
 800049a:	6963      	ldr	r3, [r4, #20]
  HAL_NVIC_SetPriority(DMA1_Channel4_5_IRQn, 0, 0);
 800049c:	0011      	movs	r1, r2
  __HAL_RCC_DMA1_CLK_ENABLE();
 800049e:	432b      	orrs	r3, r5
 80004a0:	6163      	str	r3, [r4, #20]
 80004a2:	6963      	ldr	r3, [r4, #20]
  HAL_NVIC_SetPriority(DMA1_Channel4_5_IRQn, 0, 0);
 80004a4:	200b      	movs	r0, #11
  __HAL_RCC_DMA1_CLK_ENABLE();
 80004a6:	402b      	ands	r3, r5
 80004a8:	9301      	str	r3, [sp, #4]
 80004aa:	9b01      	ldr	r3, [sp, #4]
  HAL_NVIC_SetPriority(DMA1_Channel4_5_IRQn, 0, 0);
 80004ac:	f000 faf0 	bl	8000a90 <HAL_NVIC_SetPriority>
  HAL_NVIC_EnableIRQ(DMA1_Channel4_5_IRQn);
 80004b0:	200b      	movs	r0, #11
 80004b2:	f000 fb17 	bl	8000ae4 <HAL_NVIC_EnableIRQ>
  TIM_ClockConfigTypeDef sClockSourceConfig = {0};
 80004b6:	2210      	movs	r2, #16
 80004b8:	2100      	movs	r1, #0
 80004ba:	a805      	add	r0, sp, #20
 80004bc:	f001 fc96 	bl	8001dec <memset>
  TIM_MasterConfigTypeDef sMasterConfig = {0};
 80004c0:	2208      	movs	r2, #8
 80004c2:	2100      	movs	r1, #0
 80004c4:	a803      	add	r0, sp, #12
 80004c6:	f001 fc91 	bl	8001dec <memset>
  TIM_OC_InitTypeDef sConfigOC = {0};
 80004ca:	221c      	movs	r2, #28
 80004cc:	2100      	movs	r1, #0
 80004ce:	a809      	add	r0, sp, #36	@ 0x24
 80004d0:	f001 fc8c 	bl	8001dec <memset>
  htim3.Instance = TIM3;
 80004d4:	4c44      	ldr	r4, [pc, #272]	@ (80005e8 <main+0x188>)
 80004d6:	4b45      	ldr	r3, [pc, #276]	@ (80005ec <main+0x18c>)
  htim3.Init.Period = 71;
 80004d8:	2247      	movs	r2, #71	@ 0x47
  htim3.Instance = TIM3;
 80004da:	6023      	str	r3, [r4, #0]
  htim3.Init.Prescaler = 0;
 80004dc:	2300      	movs	r3, #0
  if (HAL_TIM_Base_Init(&htim3) != HAL_OK)
 80004de:	0020      	movs	r0, r4
  htim3.Init.Prescaler = 0;
 80004e0:	6063      	str	r3, [r4, #4]
  htim3.Init.CounterMode = TIM_COUNTERMODE_UP;
 80004e2:	60a3      	str	r3, [r4, #8]
  htim3.Init.ClockDivision = TIM_CLOCKDIVISION_DIV1;
 80004e4:	6123      	str	r3, [r4, #16]
  htim3.Init.AutoReloadPreload = TIM_AUTORELOAD_PRELOAD_ENABLE;
 80004e6:	3380      	adds	r3, #128	@ 0x80
  htim3.Init.Period = 71;
 80004e8:	60e2      	str	r2, [r4, #12]
  htim3.Init.AutoReloadPreload = TIM_AUTORELOAD_PRELOAD_ENABLE;
 80004ea:	61a3      	str	r3, [r4, #24]
  if (HAL_TIM_Base_Init(&htim3) != HAL_OK)
 80004ec:	f001 f974 	bl	80017d8 <HAL_TIM_Base_Init>
 80004f0:	2800      	cmp	r0, #0
 80004f2:	d001      	beq.n	80004f8 <main+0x98>
 80004f4:	b672      	cpsid	i
  while (1)
 80004f6:	e7fe      	b.n	80004f6 <main+0x96>
  sClockSourceConfig.ClockSource = TIM_CLOCKSOURCE_INTERNAL;
 80004f8:	2380      	movs	r3, #128	@ 0x80
  if (HAL_TIM_ConfigClockSource(&htim3, &sClockSourceConfig) != HAL_OK)
 80004fa:	0020      	movs	r0, r4
  sClockSourceConfig.ClockSource = TIM_CLOCKSOURCE_INTERNAL;
 80004fc:	015b      	lsls	r3, r3, #5
  if (HAL_TIM_ConfigClockSource(&htim3, &sClockSourceConfig) != HAL_OK)
 80004fe:	a905      	add	r1, sp, #20
  sClockSourceConfig.ClockSource = TIM_CLOCKSOURCE_INTERNAL;
 8000500:	9305      	str	r3, [sp, #20]
  if (HAL_TIM_ConfigClockSource(&htim3, &sClockSourceConfig) != HAL_OK)
 8000502:	f001 fa61 	bl	80019c8 <HAL_TIM_ConfigClockSource>
 8000506:	2800      	cmp	r0, #0
 8000508:	d001      	beq.n	800050e <main+0xae>
 800050a:	b672      	cpsid	i
  while (1)
 800050c:	e7fe      	b.n	800050c <main+0xac>
  if (HAL_TIM_PWM_Init(&htim3) != HAL_OK)
 800050e:	0020      	movs	r0, r4
 8000510:	f001 f98a 	bl	8001828 <HAL_TIM_PWM_Init>
 8000514:	2800      	cmp	r0, #0
 8000516:	d001      	beq.n	800051c <main+0xbc>
 8000518:	b672      	cpsid	i
  while (1)
 800051a:	e7fe      	b.n	800051a <main+0xba>
  sMasterConfig.MasterOutputTrigger = TIM_TRGO_RESET;
 800051c:	9003      	str	r0, [sp, #12]
  sMasterConfig.MasterSlaveMode = TIM_MASTERSLAVEMODE_DISABLE;
 800051e:	9004      	str	r0, [sp, #16]
  if (HAL_TIMEx_MasterConfigSynchronization(&htim3, &sMasterConfig) != HAL_OK)
 8000520:	a903      	add	r1, sp, #12
 8000522:	0020      	movs	r0, r4
 8000524:	f001 fc38 	bl	8001d98 <HAL_TIMEx_MasterConfigSynchronization>
 8000528:	1e02      	subs	r2, r0, #0
 800052a:	d001      	beq.n	8000530 <main+0xd0>
 800052c:	b672      	cpsid	i
  while (1)
 800052e:	e7fe      	b.n	800052e <main+0xce>
  sConfigOC.OCMode = TIM_OCMODE_PWM1;
 8000530:	2360      	movs	r3, #96	@ 0x60
  sConfigOC.Pulse = 0;
 8000532:	900a      	str	r0, [sp, #40]	@ 0x28
  sConfigOC.OCPolarity = TIM_OCPOLARITY_HIGH;
 8000534:	900b      	str	r0, [sp, #44]	@ 0x2c
  sConfigOC.OCFastMode = TIM_OCFAST_DISABLE;
 8000536:	900d      	str	r0, [sp, #52]	@ 0x34
  if (HAL_TIM_PWM_ConfigChannel(&htim3, &sConfigOC, TIM_CHANNEL_1) != HAL_OK)
 8000538:	a909      	add	r1, sp, #36	@ 0x24
 800053a:	0020      	movs	r0, r4
  sConfigOC.OCMode = TIM_OCMODE_PWM1;
 800053c:	9309      	str	r3, [sp, #36]	@ 0x24
  if (HAL_TIM_PWM_ConfigChannel(&htim3, &sConfigOC, TIM_CHANNEL_1) != HAL_OK)
 800053e:	f001 f9d7 	bl	80018f0 <HAL_TIM_PWM_ConfigChannel>
 8000542:	2800      	cmp	r0, #0
 8000544:	d001      	beq.n	800054a <main+0xea>
 8000546:	b672      	cpsid	i
  while (1)
 8000548:	e7fe      	b.n	8000548 <main+0xe8>
  HAL_TIM_MspPostInit(&htim3);
 800054a:	0020      	movs	r0, r4
 800054c:	f000 f8b0 	bl	80006b0 <HAL_TIM_MspPostInit>
	      HAL_Delay(500);
 8000550:	24fa      	movs	r4, #250	@ 0xfa
  HAL_Delay(100);
 8000552:	2064      	movs	r0, #100	@ 0x64
 8000554:	f000 fa8a 	bl	8000a6c <HAL_Delay>
  WS2812B_Init();
 8000558:	f000 f9aa 	bl	80008b0 <WS2812B_Init>
	      HAL_Delay(500);
 800055c:	0064      	lsls	r4, r4, #1
	      WS2812B_SetLED(0, 50, 0, 0);    // Red
 800055e:	2300      	movs	r3, #0
 8000560:	2132      	movs	r1, #50	@ 0x32
 8000562:	001a      	movs	r2, r3
 8000564:	0018      	movs	r0, r3
 8000566:	f000 f8e5 	bl	8000734 <WS2812B_SetLED>
	      WS2812B_PrepareBuffer();
 800056a:	f000 f8ff 	bl	800076c <WS2812B_PrepareBuffer>
	      WS2812B_SendToLEDs();
 800056e:	f000 f977 	bl	8000860 <WS2812B_SendToLEDs>
	      HAL_Delay(500);
 8000572:	0020      	movs	r0, r4
 8000574:	f000 fa7a 	bl	8000a6c <HAL_Delay>
	      WS2812B_SetLED(0, 0, 50, 0);    // Green
 8000578:	2300      	movs	r3, #0
 800057a:	2232      	movs	r2, #50	@ 0x32
 800057c:	0019      	movs	r1, r3
 800057e:	0018      	movs	r0, r3
 8000580:	f000 f8d8 	bl	8000734 <WS2812B_SetLED>
	      WS2812B_PrepareBuffer();
 8000584:	f000 f8f2 	bl	800076c <WS2812B_PrepareBuffer>
	      WS2812B_SendToLEDs();
 8000588:	f000 f96a 	bl	8000860 <WS2812B_SendToLEDs>
	      HAL_Delay(500);
 800058c:	0020      	movs	r0, r4
 800058e:	f000 fa6d 	bl	8000a6c <HAL_Delay>
	      WS2812B_SetLED(0, 0, 0, 50);    // Blue
 8000592:	2200      	movs	r2, #0
 8000594:	2332      	movs	r3, #50	@ 0x32
 8000596:	0011      	movs	r1, r2
 8000598:	0010      	movs	r0, r2
 800059a:	f000 f8cb 	bl	8000734 <WS2812B_SetLED>
	      WS2812B_PrepareBuffer();
 800059e:	f000 f8e5 	bl	800076c <WS2812B_PrepareBuffer>
	      WS2812B_SendToLEDs();
 80005a2:	f000 f95d 	bl	8000860 <WS2812B_SendToLEDs>
	      HAL_Delay(500);
 80005a6:	0020      	movs	r0, r4
 80005a8:	f000 fa60 	bl	8000a6c <HAL_Delay>
	      WS2812B_SetAllLED(20, 20, 20);  // White (low brightness)
 80005ac:	2214      	movs	r2, #20
 80005ae:	0010      	movs	r0, r2
 80005b0:	0011      	movs	r1, r2
 80005b2:	f000 f8cd 	bl	8000750 <WS2812B_SetAllLED>
	      WS2812B_PrepareBuffer();
 80005b6:	f000 f8d9 	bl	800076c <WS2812B_PrepareBuffer>
	      WS2812B_SendToLEDs();
 80005ba:	f000 f951 	bl	8000860 <WS2812B_SendToLEDs>
	      HAL_Delay(1000);
 80005be:	20fa      	movs	r0, #250	@ 0xfa
 80005c0:	0080      	lsls	r0, r0, #2
 80005c2:	f000 fa53 	bl	8000a6c <HAL_Delay>
 80005c6:	2532      	movs	r5, #50	@ 0x32
	        WS2812B_Rainbow(50);
 80005c8:	2032      	movs	r0, #50	@ 0x32
	      for(int i = 0; i < 50; i++) {
 80005ca:	3d01      	subs	r5, #1
	        WS2812B_Rainbow(50);
 80005cc:	f000 f988 	bl	80008e0 <WS2812B_Rainbow>
	      for(int i = 0; i < 50; i++) {
 80005d0:	2d00      	cmp	r5, #0
 80005d2:	d1f9      	bne.n	80005c8 <main+0x168>
	      WS2812B_Clear();
 80005d4:	f000 f97a 	bl	80008cc <WS2812B_Clear>
	      HAL_Delay(1000);
 80005d8:	20fa      	movs	r0, #250	@ 0xfa
 80005da:	0080      	lsls	r0, r0, #2
 80005dc:	f000 fa46 	bl	8000a6c <HAL_Delay>
	      WS2812B_SetLED(0, 50, 0, 0);    // Red
 80005e0:	e7bd      	b.n	800055e <main+0xfe>
 80005e2:	46c0      	nop			@ (mov r8, r8)
 80005e4:	40021000 	.word	0x40021000
 80005e8:	2000006c 	.word	0x2000006c
 80005ec:	40000400 	.word	0x40000400

080005f0 <HAL_TIM_PWM_PulseFinishedCallback>:
  if (htim->Instance == TIM3) {
 80005f0:	4b03      	ldr	r3, [pc, #12]	@ (8000600 <HAL_TIM_PWM_PulseFinishedCallback+0x10>)
 80005f2:	6802      	ldr	r2, [r0, #0]
{
 80005f4:	b510      	push	{r4, lr}
  if (htim->Instance == TIM3) {
 80005f6:	429a      	cmp	r2, r3
 80005f8:	d101      	bne.n	80005fe <HAL_TIM_PWM_PulseFinishedCallback+0xe>
    WS2812B_TIM_DMADelayPulseFinished();
 80005fa:	f000 f96b 	bl	80008d4 <WS2812B_TIM_DMADelayPulseFinished>
}
 80005fe:	bd10      	pop	{r4, pc}
 8000600:	40000400 	.word	0x40000400

08000604 <Error_Handler>:
 8000604:	b672      	cpsid	i
  while (1)
 8000606:	e7fe      	b.n	8000606 <Error_Handler+0x2>

08000608 <HAL_MspInit>:
 8000608:	2101      	movs	r1, #1
 800060a:	4b0a      	ldr	r3, [pc, #40]	@ (8000634 <HAL_MspInit+0x2c>)
 800060c:	b082      	sub	sp, #8
 800060e:	699a      	ldr	r2, [r3, #24]
 8000610:	430a      	orrs	r2, r1
 8000612:	619a      	str	r2, [r3, #24]
 8000614:	699a      	ldr	r2, [r3, #24]
 8000616:	400a      	ands	r2, r1
 8000618:	2180      	movs	r1, #128	@ 0x80
 800061a:	9200      	str	r2, [sp, #0]
 800061c:	9a00      	ldr	r2, [sp, #0]
 800061e:	69da      	ldr	r2, [r3, #28]
 8000620:	0549      	lsls	r1, r1, #21
 8000622:	430a      	orrs	r2, r1
 8000624:	61da      	str	r2, [r3, #28]
 8000626:	69db      	ldr	r3, [r3, #28]
 8000628:	400b      	ands	r3, r1
 800062a:	9301      	str	r3, [sp, #4]
 800062c:	9b01      	ldr	r3, [sp, #4]
 800062e:	b002      	add	sp, #8
 8000630:	4770      	bx	lr
 8000632:	46c0      	nop			@ (mov r8, r8)
 8000634:	40021000 	.word	0x40021000

08000638 <HAL_TIM_Base_MspInit>:
 8000638:	b537      	push	{r0, r1, r2, r4, r5, lr}
 800063a:	4b19      	ldr	r3, [pc, #100]	@ (80006a0 <HAL_TIM_Base_MspInit+0x68>)
 800063c:	6802      	ldr	r2, [r0, #0]
 800063e:	0005      	movs	r5, r0
 8000640:	429a      	cmp	r2, r3
 8000642:	d12c      	bne.n	800069e <HAL_TIM_Base_MspInit+0x66>
 8000644:	2102      	movs	r1, #2
 8000646:	4b17      	ldr	r3, [pc, #92]	@ (80006a4 <HAL_TIM_Base_MspInit+0x6c>)
 8000648:	4c17      	ldr	r4, [pc, #92]	@ (80006a8 <HAL_TIM_Base_MspInit+0x70>)
 800064a:	69da      	ldr	r2, [r3, #28]
 800064c:	0020      	movs	r0, r4
 800064e:	430a      	orrs	r2, r1
 8000650:	61da      	str	r2, [r3, #28]
 8000652:	69db      	ldr	r3, [r3, #28]
 8000654:	2280      	movs	r2, #128	@ 0x80
 8000656:	400b      	ands	r3, r1
 8000658:	9301      	str	r3, [sp, #4]
 800065a:	9b01      	ldr	r3, [sp, #4]
 800065c:	4b13      	ldr	r3, [pc, #76]	@ (80006ac <HAL_TIM_Base_MspInit+0x74>)
 800065e:	60e2      	str	r2, [r4, #12]
 8000660:	6023      	str	r3, [r4, #0]
 8000662:	2310      	movs	r3, #16
 8000664:	6063      	str	r3, [r4, #4]
 8000666:	2300      	movs	r3, #0
 8000668:	1892      	adds	r2, r2, r2
 800066a:	60a3      	str	r3, [r4, #8]
 800066c:	6122      	str	r2, [r4, #16]
 800066e:	61a3      	str	r3, [r4, #24]
 8000670:	2280      	movs	r2, #128	@ 0x80
 8000672:	2380      	movs	r3, #128	@ 0x80
 8000674:	00d2      	lsls	r2, r2, #3
 8000676:	019b      	lsls	r3, r3, #6
 8000678:	6162      	str	r2, [r4, #20]
 800067a:	61e3      	str	r3, [r4, #28]
 800067c:	f000 fa58 	bl	8000b30 <HAL_DMA_Init>
 8000680:	2800      	cmp	r0, #0
 8000682:	d001      	beq.n	8000688 <HAL_TIM_Base_MspInit+0x50>
 8000684:	f7ff ffbe 	bl	8000604 <Error_Handler>
 8000688:	2200      	movs	r2, #0
 800068a:	2010      	movs	r0, #16
 800068c:	626c      	str	r4, [r5, #36]	@ 0x24
 800068e:	0011      	movs	r1, r2
 8000690:	63ac      	str	r4, [r5, #56]	@ 0x38
 8000692:	6265      	str	r5, [r4, #36]	@ 0x24
 8000694:	f000 f9fc 	bl	8000a90 <HAL_NVIC_SetPriority>
 8000698:	2010      	movs	r0, #16
 800069a:	f000 fa23 	bl	8000ae4 <HAL_NVIC_EnableIRQ>
 800069e:	bd37      	pop	{r0, r1, r2, r4, r5, pc}
 80006a0:	40000400 	.word	0x40000400
 80006a4:	40021000 	.word	0x40021000
 80006a8:	20000028 	.word	0x20000028
 80006ac:	40020044 	.word	0x40020044

080006b0 <HAL_TIM_MspPostInit>:
 80006b0:	b510      	push	{r4, lr}
 80006b2:	0004      	movs	r4, r0
 80006b4:	b086      	sub	sp, #24
 80006b6:	2214      	movs	r2, #20
 80006b8:	2100      	movs	r1, #0
 80006ba:	a801      	add	r0, sp, #4
 80006bc:	f001 fb96 	bl	8001dec <memset>
 80006c0:	4b0d      	ldr	r3, [pc, #52]	@ (80006f8 <HAL_TIM_MspPostInit+0x48>)
 80006c2:	6822      	ldr	r2, [r4, #0]
 80006c4:	429a      	cmp	r2, r3
 80006c6:	d114      	bne.n	80006f2 <HAL_TIM_MspPostInit+0x42>
 80006c8:	2180      	movs	r1, #128	@ 0x80
 80006ca:	4b0c      	ldr	r3, [pc, #48]	@ (80006fc <HAL_TIM_MspPostInit+0x4c>)
 80006cc:	0289      	lsls	r1, r1, #10
 80006ce:	695a      	ldr	r2, [r3, #20]
 80006d0:	2090      	movs	r0, #144	@ 0x90
 80006d2:	430a      	orrs	r2, r1
 80006d4:	615a      	str	r2, [r3, #20]
 80006d6:	695b      	ldr	r3, [r3, #20]
 80006d8:	05c0      	lsls	r0, r0, #23
 80006da:	400b      	ands	r3, r1
 80006dc:	9300      	str	r3, [sp, #0]
 80006de:	9b00      	ldr	r3, [sp, #0]
 80006e0:	2340      	movs	r3, #64	@ 0x40
 80006e2:	9301      	str	r3, [sp, #4]
 80006e4:	3b3e      	subs	r3, #62	@ 0x3e
 80006e6:	9302      	str	r3, [sp, #8]
 80006e8:	a901      	add	r1, sp, #4
 80006ea:	3b01      	subs	r3, #1
 80006ec:	9305      	str	r3, [sp, #20]
 80006ee:	f000 faf7 	bl	8000ce0 <HAL_GPIO_Init>
 80006f2:	b006      	add	sp, #24
 80006f4:	bd10      	pop	{r4, pc}
 80006f6:	46c0      	nop			@ (mov r8, r8)
 80006f8:	40000400 	.word	0x40000400
 80006fc:	40021000 	.word	0x40021000

08000700 <NMI_Handler>:
 8000700:	e7fe      	b.n	8000700 <NMI_Handler>

08000702 <HardFault_Handler>:
 8000702:	e7fe      	b.n	8000702 <HardFault_Handler>

08000704 <SVC_Handler>:
 8000704:	4770      	bx	lr

08000706 <PendSV_Handler>:
 8000706:	4770      	bx	lr

08000708 <SysTick_Handler>:
 8000708:	b510      	push	{r4, lr}
 800070a:	f000 f99d 	bl	8000a48 <HAL_IncTick>
 800070e:	bd10      	pop	{r4, pc}

08000710 <DMA1_Channel4_5_IRQHandler>:
 8000710:	b510      	push	{r4, lr}
 8000712:	4802      	ldr	r0, [pc, #8]	@ (800071c <DMA1_Channel4_5_IRQHandler+0xc>)
 8000714:	f000 fa9b 	bl	8000c4e <HAL_DMA_IRQHandler>
 8000718:	bd10      	pop	{r4, pc}
 800071a:	46c0      	nop			@ (mov r8, r8)
 800071c:	20000028 	.word	0x20000028

08000720 <TIM3_IRQHandler>:
 8000720:	b510      	push	{r4, lr}
 8000722:	4802      	ldr	r0, [pc, #8]	@ (800072c <TIM3_IRQHandler+0xc>)
 8000724:	f000 ff46 	bl	80015b4 <HAL_TIM_IRQHandler>
 8000728:	bd10      	pop	{r4, pc}
 800072a:	46c0      	nop			@ (mov r8, r8)
 800072c:	2000006c 	.word	0x2000006c

08000730 <SystemInit>:
 8000730:	4770      	bx	lr
	...

08000734 <WS2812B_SetLED>:
  // Turn off all LEDs at startup
  WS2812B_SendToLEDs();
}

void WS2812B_SetLED(uint16_t index, uint8_t red, uint8_t green, uint8_t blue)
{
 8000734:	b530      	push	{r4, r5, lr}
 8000736:	0005      	movs	r5, r0
  if (index < LED_COUNT) {
 8000738:	2809      	cmp	r0, #9
 800073a:	d806      	bhi.n	800074a <WS2812B_SetLED+0x16>
    ledColors[index].red = red;
 800073c:	2003      	movs	r0, #3
 800073e:	4368      	muls	r0, r5
 8000740:	4c02      	ldr	r4, [pc, #8]	@ (800074c <WS2812B_SetLED+0x18>)
 8000742:	1825      	adds	r5, r4, r0
 8000744:	7069      	strb	r1, [r5, #1]
    ledColors[index].green = green;
 8000746:	5502      	strb	r2, [r0, r4]
    ledColors[index].blue = blue;
 8000748:	70ab      	strb	r3, [r5, #2]
  }
}
 800074a:	bd30      	pop	{r4, r5, pc}
 800074c:	200000b6 	.word	0x200000b6

08000750 <WS2812B_SetAllLED>:
  WS2812B_SendToLEDs();
}

void WS2812B_SetAllLED(uint8_t red, uint8_t green, uint8_t blue)
{
  for (uint16_t i = 0; i < LED_COUNT; i++) {
 8000750:	2300      	movs	r3, #0
{
 8000752:	b510      	push	{r4, lr}
 8000754:	4c04      	ldr	r4, [pc, #16]	@ (8000768 <WS2812B_SetAllLED+0x18>)
  for (uint16_t i = 0; i < LED_COUNT; i++) {
 8000756:	3301      	adds	r3, #1
 8000758:	b29b      	uxth	r3, r3
    ledColors[i].red = red;
 800075a:	7060      	strb	r0, [r4, #1]
    ledColors[i].green = green;
 800075c:	7021      	strb	r1, [r4, #0]
    ledColors[i].blue = blue;
 800075e:	70a2      	strb	r2, [r4, #2]
  for (uint16_t i = 0; i < LED_COUNT; i++) {
 8000760:	3403      	adds	r4, #3
 8000762:	2b0a      	cmp	r3, #10
 8000764:	d1f7      	bne.n	8000756 <WS2812B_SetAllLED+0x6>
  }
}
 8000766:	bd10      	pop	{r4, pc}
 8000768:	200000b6 	.word	0x200000b6

0800076c <WS2812B_PrepareBuffer>:

void WS2812B_PrepareBuffer(void)
{
  uint16_t bufferIndex = 0;
 800076c:	210a      	movs	r1, #10
 800076e:	2300      	movs	r3, #0
{
 8000770:	b5f0      	push	{r4, r5, r6, r7, lr}
 8000772:	b085      	sub	sp, #20
  uint16_t bufferIndex = 0;
 8000774:	9101      	str	r1, [sp, #4]
 8000776:	4938      	ldr	r1, [pc, #224]	@ (8000858 <WS2812B_PrepareBuffer+0xec>)
 8000778:	4a38      	ldr	r2, [pc, #224]	@ (800085c <WS2812B_PrepareBuffer+0xf0>)

  // For each LED
  for (uint16_t i = 0; i < LED_COUNT; i++) {
    // Green byte (sent first in WS2812B)
    for (int8_t bit = 7; bit >= 0; bit--) {
      if (bufferIndex >= WS2812B_BUFFER_SIZE) return;
 800077a:	9102      	str	r1, [sp, #8]
 800077c:	2591      	movs	r5, #145	@ 0x91
      ledBuffer[bufferIndex++] = (ledColors[i].green & (1 << bit)) ?
 800077e:	7811      	ldrb	r1, [r2, #0]
 8000780:	9802      	ldr	r0, [sp, #8]
 8000782:	468c      	mov	ip, r1
 8000784:	0059      	lsls	r1, r3, #1
 8000786:	1809      	adds	r1, r1, r0
 8000788:	2701      	movs	r7, #1
 800078a:	2007      	movs	r0, #7
 800078c:	006d      	lsls	r5, r5, #1
 800078e:	e003      	b.n	8000798 <WS2812B_PrepareBuffer+0x2c>
      if (bufferIndex >= WS2812B_BUFFER_SIZE) return;
 8000790:	3801      	subs	r0, #1
 8000792:	3102      	adds	r1, #2
 8000794:	42ab      	cmp	r3, r5
 8000796:	d047      	beq.n	8000828 <WS2812B_PrepareBuffer+0xbc>
      ledBuffer[bufferIndex++] = (ledColors[i].green & (1 << bit)) ?
 8000798:	4664      	mov	r4, ip
 800079a:	4104      	asrs	r4, r0
 800079c:	2613      	movs	r6, #19
 800079e:	423c      	tst	r4, r7
 80007a0:	d000      	beq.n	80007a4 <WS2812B_PrepareBuffer+0x38>
 80007a2:	19b6      	adds	r6, r6, r6
 80007a4:	3301      	adds	r3, #1
 80007a6:	b29b      	uxth	r3, r3
 80007a8:	800e      	strh	r6, [r1, #0]
    for (int8_t bit = 7; bit >= 0; bit--) {
 80007aa:	2800      	cmp	r0, #0
 80007ac:	d1f0      	bne.n	8000790 <WS2812B_PrepareBuffer+0x24>
                                  WS2812B_ONE_PULSE : WS2812B_ZERO_PULSE;
    }

    // Red byte
    for (int8_t bit = 7; bit >= 0; bit--) {
      if (bufferIndex >= WS2812B_BUFFER_SIZE) return;
 80007ae:	42ab      	cmp	r3, r5
 80007b0:	d03a      	beq.n	8000828 <WS2812B_PrepareBuffer+0xbc>
      ledBuffer[bufferIndex++] = (ledColors[i].red & (1 << bit)) ?
 80007b2:	7851      	ldrb	r1, [r2, #1]
 80007b4:	2491      	movs	r4, #145	@ 0x91
 80007b6:	3026      	adds	r0, #38	@ 0x26
 80007b8:	9103      	str	r1, [sp, #12]
 80007ba:	2713      	movs	r7, #19
 80007bc:	2107      	movs	r1, #7
 80007be:	4684      	mov	ip, r0
 80007c0:	0064      	lsls	r4, r4, #1
 80007c2:	9803      	ldr	r0, [sp, #12]
 80007c4:	2601      	movs	r6, #1
 80007c6:	4108      	asrs	r0, r1
 80007c8:	003d      	movs	r5, r7
 80007ca:	4230      	tst	r0, r6
 80007cc:	d000      	beq.n	80007d0 <WS2812B_PrepareBuffer+0x64>
 80007ce:	4665      	mov	r5, ip
 80007d0:	9e02      	ldr	r6, [sp, #8]
 80007d2:	0058      	lsls	r0, r3, #1
 80007d4:	5235      	strh	r5, [r6, r0]
    for (int8_t bit = 7; bit >= 0; bit--) {
 80007d6:	3301      	adds	r3, #1
 80007d8:	2900      	cmp	r1, #0
 80007da:	d121      	bne.n	8000820 <WS2812B_PrepareBuffer+0xb4>
      ledBuffer[bufferIndex++] = (ledColors[i].red & (1 << bit)) ?
 80007dc:	b29b      	uxth	r3, r3
                                  WS2812B_ONE_PULSE : WS2812B_ZERO_PULSE;
    }

    // Blue byte
    for (int8_t bit = 7; bit >= 0; bit--) {
      if (bufferIndex >= WS2812B_BUFFER_SIZE) return;
 80007de:	42a3      	cmp	r3, r4
 80007e0:	d022      	beq.n	8000828 <WS2812B_PrepareBuffer+0xbc>
      ledBuffer[bufferIndex++] = (ledColors[i].blue & (1 << bit)) ?
 80007e2:	7891      	ldrb	r1, [r2, #2]
 80007e4:	2026      	movs	r0, #38	@ 0x26
 80007e6:	9103      	str	r1, [sp, #12]
 80007e8:	2713      	movs	r7, #19
 80007ea:	2107      	movs	r1, #7
 80007ec:	4684      	mov	ip, r0
 80007ee:	30fc      	adds	r0, #252	@ 0xfc
 80007f0:	9c03      	ldr	r4, [sp, #12]
 80007f2:	2601      	movs	r6, #1
 80007f4:	410c      	asrs	r4, r1
 80007f6:	003d      	movs	r5, r7
 80007f8:	4234      	tst	r4, r6
 80007fa:	d000      	beq.n	80007fe <WS2812B_PrepareBuffer+0x92>
 80007fc:	4665      	mov	r5, ip
 80007fe:	9e02      	ldr	r6, [sp, #8]
 8000800:	005c      	lsls	r4, r3, #1
 8000802:	5335      	strh	r5, [r6, r4]
    for (int8_t bit = 7; bit >= 0; bit--) {
 8000804:	3301      	adds	r3, #1
 8000806:	2900      	cmp	r1, #0
 8000808:	d110      	bne.n	800082c <WS2812B_PrepareBuffer+0xc0>
  for (uint16_t i = 0; i < LED_COUNT; i++) {
 800080a:	9901      	ldr	r1, [sp, #4]
      ledBuffer[bufferIndex++] = (ledColors[i].blue & (1 << bit)) ?
 800080c:	b29b      	uxth	r3, r3
  for (uint16_t i = 0; i < LED_COUNT; i++) {
 800080e:	3901      	subs	r1, #1
 8000810:	b289      	uxth	r1, r1
 8000812:	9101      	str	r1, [sp, #4]
 8000814:	3203      	adds	r2, #3
 8000816:	2900      	cmp	r1, #0
 8000818:	d00d      	beq.n	8000836 <WS2812B_PrepareBuffer+0xca>
      if (bufferIndex >= WS2812B_BUFFER_SIZE) return;
 800081a:	4283      	cmp	r3, r0
 800081c:	d1ae      	bne.n	800077c <WS2812B_PrepareBuffer+0x10>
 800081e:	e003      	b.n	8000828 <WS2812B_PrepareBuffer+0xbc>
      if (bufferIndex >= WS2812B_BUFFER_SIZE) return;
 8000820:	b298      	uxth	r0, r3
 8000822:	3901      	subs	r1, #1
 8000824:	42a0      	cmp	r0, r4
 8000826:	d3cc      	bcc.n	80007c2 <WS2812B_PrepareBuffer+0x56>

  // Reset pulse
  for (uint16_t i = 0; i < WS2812B_RESET_LEN && bufferIndex < WS2812B_BUFFER_SIZE; i++) {
    ledBuffer[bufferIndex++] = 0;
  }
}
 8000828:	b005      	add	sp, #20
 800082a:	bdf0      	pop	{r4, r5, r6, r7, pc}
      if (bufferIndex >= WS2812B_BUFFER_SIZE) return;
 800082c:	b29c      	uxth	r4, r3
 800082e:	3901      	subs	r1, #1
 8000830:	4284      	cmp	r4, r0
 8000832:	d3dd      	bcc.n	80007f0 <WS2812B_PrepareBuffer+0x84>
 8000834:	e7f8      	b.n	8000828 <WS2812B_PrepareBuffer+0xbc>
  for (uint16_t i = 0; i < WS2812B_RESET_LEN && bufferIndex < WS2812B_BUFFER_SIZE; i++) {
 8000836:	4283      	cmp	r3, r0
 8000838:	d0f6      	beq.n	8000828 <WS2812B_PrepareBuffer+0xbc>
 800083a:	001c      	movs	r4, r3
 800083c:	2191      	movs	r1, #145	@ 0x91
    ledBuffer[bufferIndex++] = 0;
 800083e:	9a01      	ldr	r2, [sp, #4]
 8000840:	3431      	adds	r4, #49	@ 0x31
  for (uint16_t i = 0; i < WS2812B_RESET_LEN && bufferIndex < WS2812B_BUFFER_SIZE; i++) {
 8000842:	0049      	lsls	r1, r1, #1
    ledBuffer[bufferIndex++] = 0;
 8000844:	9d02      	ldr	r5, [sp, #8]
 8000846:	0058      	lsls	r0, r3, #1
 8000848:	522a      	strh	r2, [r5, r0]
  for (uint16_t i = 0; i < WS2812B_RESET_LEN && bufferIndex < WS2812B_BUFFER_SIZE; i++) {
 800084a:	42a3      	cmp	r3, r4
 800084c:	d0ec      	beq.n	8000828 <WS2812B_PrepareBuffer+0xbc>
 800084e:	3301      	adds	r3, #1
 8000850:	b298      	uxth	r0, r3
 8000852:	4288      	cmp	r0, r1
 8000854:	d1f6      	bne.n	8000844 <WS2812B_PrepareBuffer+0xd8>
 8000856:	e7e7      	b.n	8000828 <WS2812B_PrepareBuffer+0xbc>
 8000858:	200000d4 	.word	0x200000d4
 800085c:	200000b6 	.word	0x200000b6

08000860 <WS2812B_SendToLEDs>:

void WS2812B_SendToLEDs(void)
{
 8000860:	b570      	push	{r4, r5, r6, lr}
  transferComplete = false;
 8000862:	2600      	movs	r6, #0

  // Stop timer and DMA if running (cleanup from previous transfer)
  HAL_TIM_PWM_Stop_DMA(&htim3, TIM_CHANNEL_1);
 8000864:	4c0f      	ldr	r4, [pc, #60]	@ (80008a4 <WS2812B_SendToLEDs+0x44>)
  transferComplete = false;
 8000866:	4d10      	ldr	r5, [pc, #64]	@ (80008a8 <WS2812B_SendToLEDs+0x48>)
  HAL_TIM_PWM_Stop_DMA(&htim3, TIM_CHANNEL_1);
 8000868:	0031      	movs	r1, r6
 800086a:	0020      	movs	r0, r4
  transferComplete = false;
 800086c:	702e      	strb	r6, [r5, #0]
  HAL_TIM_PWM_Stop_DMA(&htim3, TIM_CHANNEL_1);
 800086e:	f001 fa8f 	bl	8001d90 <HAL_TIM_PWM_Stop_DMA>

  // Start PWM with DMA
  if (HAL_TIM_PWM_Start_DMA(&htim3, TIM_CHANNEL_1, (uint32_t*)ledBuffer, WS2812B_BUFFER_SIZE) != HAL_OK) {
 8000872:	2391      	movs	r3, #145	@ 0x91
 8000874:	0031      	movs	r1, r6
 8000876:	0020      	movs	r0, r4
 8000878:	4a0c      	ldr	r2, [pc, #48]	@ (80008ac <WS2812B_SendToLEDs+0x4c>)
 800087a:	005b      	lsls	r3, r3, #1
 800087c:	f001 fa0e 	bl	8001c9c <HAL_TIM_PWM_Start_DMA>
 8000880:	42b0      	cmp	r0, r6
 8000882:	d10d      	bne.n	80008a0 <WS2812B_SendToLEDs+0x40>
    // Handle error
    return;
  }

  // Wait for transfer completion with timeout
  uint32_t timeout = HAL_GetTick() + 100;
 8000884:	f000 f8ec 	bl	8000a60 <HAL_GetTick>
 8000888:	3064      	adds	r0, #100	@ 0x64
 800088a:	0004      	movs	r4, r0
  while (!transferComplete && HAL_GetTick() < timeout) {
 800088c:	782b      	ldrb	r3, [r5, #0]
 800088e:	2b00      	cmp	r3, #0
 8000890:	d103      	bne.n	800089a <WS2812B_SendToLEDs+0x3a>
 8000892:	f000 f8e5 	bl	8000a60 <HAL_GetTick>
 8000896:	4284      	cmp	r4, r0
 8000898:	d8f8      	bhi.n	800088c <WS2812B_SendToLEDs+0x2c>
    // Wait - DMA will stop automatically when transfer completes
  }

  // Additional small delay to ensure reset pulse completes
  HAL_Delay(1);
 800089a:	2001      	movs	r0, #1
 800089c:	f000 f8e6 	bl	8000a6c <HAL_Delay>
}
 80008a0:	bd70      	pop	{r4, r5, r6, pc}
 80008a2:	46c0      	nop			@ (mov r8, r8)
 80008a4:	2000006c 	.word	0x2000006c
 80008a8:	200000b5 	.word	0x200000b5
 80008ac:	200000d4 	.word	0x200000d4

080008b0 <WS2812B_Init>:
{
 80008b0:	b510      	push	{r4, lr}
  memset(ledColors, 0, sizeof(ledColors));
 80008b2:	221e      	movs	r2, #30
 80008b4:	2100      	movs	r1, #0
 80008b6:	4804      	ldr	r0, [pc, #16]	@ (80008c8 <WS2812B_Init+0x18>)
 80008b8:	f001 fa98 	bl	8001dec <memset>
  WS2812B_PrepareBuffer();
 80008bc:	f7ff ff56 	bl	800076c <WS2812B_PrepareBuffer>
  WS2812B_SendToLEDs();
 80008c0:	f7ff ffce 	bl	8000860 <WS2812B_SendToLEDs>
}
 80008c4:	bd10      	pop	{r4, pc}
 80008c6:	46c0      	nop			@ (mov r8, r8)
 80008c8:	200000b6 	.word	0x200000b6

080008cc <WS2812B_Clear>:
void WS2812B_Clear(void)
 80008cc:	b510      	push	{r4, lr}
 80008ce:	f7ff ffef 	bl	80008b0 <WS2812B_Init>
 80008d2:	bd10      	pop	{r4, pc}

080008d4 <WS2812B_TIM_DMADelayPulseFinished>:

void WS2812B_TIM_DMADelayPulseFinished(void)
{
  transferComplete = true;
 80008d4:	2201      	movs	r2, #1
 80008d6:	4b01      	ldr	r3, [pc, #4]	@ (80008dc <WS2812B_TIM_DMADelayPulseFinished+0x8>)
 80008d8:	701a      	strb	r2, [r3, #0]
}
 80008da:	4770      	bx	lr
 80008dc:	200000b5 	.word	0x200000b5

080008e0 <WS2812B_Rainbow>:

// Keep your existing animation functions...
void WS2812B_Rainbow(uint32_t delay_ms)
{
 80008e0:	b5f7      	push	{r0, r1, r2, r4, r5, r6, r7, lr}
    uint8_t hsv_s = 255;
    uint8_t hsv_v = 50; // Reduced brightness

    // Simple HSV to RGB conversion
    uint8_t region = hsv_h / 43;
    uint8_t remainder = (hsv_h - (region * 43)) * 6;
 80008e2:	272b      	movs	r7, #43	@ 0x2b
{
 80008e4:	2500      	movs	r5, #0
 80008e6:	9000      	str	r0, [sp, #0]
    uint8_t remainder = (hsv_h - (region * 43)) * 6;
 80008e8:	427f      	negs	r7, r7
 80008ea:	b2ab      	uxth	r3, r5
    uint8_t hsv_h = hue + (i * 256 / LED_COUNT);
 80008ec:	210a      	movs	r1, #10
 80008ee:	0228      	lsls	r0, r5, #8
 80008f0:	9301      	str	r3, [sp, #4]
 80008f2:	f7ff fc9d 	bl	8000230 <__divsi3>
 80008f6:	4e24      	ldr	r6, [pc, #144]	@ (8000988 <WS2812B_Rainbow+0xa8>)
    uint8_t region = hsv_h / 43;
 80008f8:	212b      	movs	r1, #43	@ 0x2b
    uint8_t hsv_h = hue + (i * 256 / LED_COUNT);
 80008fa:	7834      	ldrb	r4, [r6, #0]
 80008fc:	1904      	adds	r4, r0, r4
 80008fe:	b2e4      	uxtb	r4, r4
    uint8_t region = hsv_h / 43;
 8000900:	0020      	movs	r0, r4
 8000902:	f7ff fc0b 	bl	800011c <__udivsi3>
    uint8_t remainder = (hsv_h - (region * 43)) * 6;
 8000906:	003a      	movs	r2, r7
    uint8_t region = hsv_h / 43;
 8000908:	b2c3      	uxtb	r3, r0
    uint8_t remainder = (hsv_h - (region * 43)) * 6;
 800090a:	435a      	muls	r2, r3
 800090c:	1914      	adds	r4, r2, r4
 800090e:	2206      	movs	r2, #6
 8000910:	4354      	muls	r4, r2

    uint8_t p = (hsv_v * (255 - hsv_s)) >> 8;
    uint8_t q = (hsv_v * (255 - ((hsv_s * remainder) >> 8))) >> 8;
 8000912:	32f9      	adds	r2, #249	@ 0xf9
 8000914:	0011      	movs	r1, r2
 8000916:	2032      	movs	r0, #50	@ 0x32
 8000918:	b2e4      	uxtb	r4, r4
 800091a:	4361      	muls	r1, r4
    uint8_t t = (hsv_v * (255 - ((hsv_s * (255 - remainder)) >> 8))) >> 8;
 800091c:	1b14      	subs	r4, r2, r4
 800091e:	4354      	muls	r4, r2
    uint8_t q = (hsv_v * (255 - ((hsv_s * remainder) >> 8))) >> 8;
 8000920:	1209      	asrs	r1, r1, #8
    uint8_t t = (hsv_v * (255 - ((hsv_s * (255 - remainder)) >> 8))) >> 8;
 8000922:	1224      	asrs	r4, r4, #8
    uint8_t q = (hsv_v * (255 - ((hsv_s * remainder) >> 8))) >> 8;
 8000924:	1a51      	subs	r1, r2, r1
    uint8_t t = (hsv_v * (255 - ((hsv_s * (255 - remainder)) >> 8))) >> 8;
 8000926:	1b12      	subs	r2, r2, r4
    uint8_t q = (hsv_v * (255 - ((hsv_s * remainder) >> 8))) >> 8;
 8000928:	4341      	muls	r1, r0
    uint8_t t = (hsv_v * (255 - ((hsv_s * (255 - remainder)) >> 8))) >> 8;
 800092a:	4342      	muls	r2, r0
    uint8_t q = (hsv_v * (255 - ((hsv_s * remainder) >> 8))) >> 8;
 800092c:	1209      	asrs	r1, r1, #8
    uint8_t t = (hsv_v * (255 - ((hsv_s * (255 - remainder)) >> 8))) >> 8;
 800092e:	1212      	asrs	r2, r2, #8
    uint8_t q = (hsv_v * (255 - ((hsv_s * remainder) >> 8))) >> 8;
 8000930:	b2c9      	uxtb	r1, r1
    uint8_t t = (hsv_v * (255 - ((hsv_s * (255 - remainder)) >> 8))) >> 8;
 8000932:	b2d2      	uxtb	r2, r2

    uint8_t r, g, b;

    switch (region) {
 8000934:	2b04      	cmp	r3, #4
 8000936:	d810      	bhi.n	800095a <WS2812B_Rainbow+0x7a>
 8000938:	0018      	movs	r0, r3
 800093a:	f7ff fbe5 	bl	8000108 <__gnu_thumb1_case_uqi>
 800093e:	2210      	.short	0x2210
 8000940:	0703      	.short	0x0703
 8000942:	0a          	.byte	0x0a
 8000943:	00          	.byte	0x00
      case 0: r = hsv_v; g = t; b = p; break;
      case 1: r = q; g = hsv_v; b = p; break;
      case 2: r = p; g = hsv_v; b = t; break;
 8000944:	0013      	movs	r3, r2
 8000946:	2232      	movs	r2, #50	@ 0x32
      case 3: r = p; g = q; b = hsv_v; break;
 8000948:	2100      	movs	r1, #0
 800094a:	e009      	b.n	8000960 <WS2812B_Rainbow+0x80>
 800094c:	000a      	movs	r2, r1
 800094e:	2332      	movs	r3, #50	@ 0x32
 8000950:	e7fa      	b.n	8000948 <WS2812B_Rainbow+0x68>
      case 4: r = t; g = p; b = hsv_v; break;
 8000952:	0011      	movs	r1, r2
 8000954:	2332      	movs	r3, #50	@ 0x32
 8000956:	2200      	movs	r2, #0
 8000958:	e002      	b.n	8000960 <WS2812B_Rainbow+0x80>
      default: r = hsv_v; g = p; b = q; break;
 800095a:	000b      	movs	r3, r1
 800095c:	2200      	movs	r2, #0
      case 0: r = hsv_v; g = t; b = p; break;
 800095e:	2132      	movs	r1, #50	@ 0x32
    }

    WS2812B_SetLED(i, r, g, b);
 8000960:	b2a8      	uxth	r0, r5
  for (uint16_t i = 0; i < LED_COUNT; i++) {
 8000962:	3501      	adds	r5, #1
    WS2812B_SetLED(i, r, g, b);
 8000964:	f7ff fee6 	bl	8000734 <WS2812B_SetLED>
  for (uint16_t i = 0; i < LED_COUNT; i++) {
 8000968:	2d0a      	cmp	r5, #10
 800096a:	d1be      	bne.n	80008ea <WS2812B_Rainbow+0xa>
  }

  WS2812B_PrepareBuffer();
 800096c:	f7ff fefe 	bl	800076c <WS2812B_PrepareBuffer>
  WS2812B_SendToLEDs();
 8000970:	f7ff ff76 	bl	8000860 <WS2812B_SendToLEDs>
  HAL_Delay(delay_ms);
 8000974:	9800      	ldr	r0, [sp, #0]
 8000976:	f000 f879 	bl	8000a6c <HAL_Delay>
  hue += 1;
 800097a:	7833      	ldrb	r3, [r6, #0]
 800097c:	3301      	adds	r3, #1
 800097e:	7033      	strb	r3, [r6, #0]
}
 8000980:	bdf7      	pop	{r0, r1, r2, r4, r5, r6, r7, pc}
    switch (region) {
 8000982:	2300      	movs	r3, #0
 8000984:	2232      	movs	r2, #50	@ 0x32
 8000986:	e7eb      	b.n	8000960 <WS2812B_Rainbow+0x80>
 8000988:	200000b4 	.word	0x200000b4

0800098c <Reset_Handler>:
 800098c:	480d      	ldr	r0, [pc, #52]	@ (80009c4 <LoopForever+0x2>)
 800098e:	4685      	mov	sp, r0
 8000990:	f7ff fece 	bl	8000730 <SystemInit>
 8000994:	480c      	ldr	r0, [pc, #48]	@ (80009c8 <LoopForever+0x6>)
 8000996:	490d      	ldr	r1, [pc, #52]	@ (80009cc <LoopForever+0xa>)
 8000998:	4a0d      	ldr	r2, [pc, #52]	@ (80009d0 <LoopForever+0xe>)
 800099a:	2300      	movs	r3, #0
 800099c:	e002      	b.n	80009a4 <LoopCopyDataInit>

0800099e <CopyDataInit>:
 800099e:	58d4      	ldr	r4, [r2, r3]
 80009a0:	50c4      	str	r4, [r0, r3]
 80009a2:	3304      	adds	r3, #4

080009a4 <LoopCopyDataInit>:
 80009a4:	18c4      	adds	r4, r0, r3
 80009a6:	428c      	cmp	r4, r1
 80009a8:	d3f9      	bcc.n	800099e <CopyDataInit>
 80009aa:	4a0a      	ldr	r2, [pc, #40]	@ (80009d4 <LoopForever+0x12>)
 80009ac:	4c0a      	ldr	r4, [pc, #40]	@ (80009d8 <LoopForever+0x16>)
 80009ae:	2300      	movs	r3, #0
 80009b0:	e001      	b.n	80009b6 <LoopFillZerobss>

080009b2 <FillZerobss>:
 80009b2:	6013      	str	r3, [r2, #0]
 80009b4:	3204      	adds	r2, #4

080009b6 <LoopFillZerobss>:
 80009b6:	42a2      	cmp	r2, r4
 80009b8:	d3fb      	bcc.n	80009b2 <FillZerobss>
 80009ba:	f001 fa1f 	bl	8001dfc <__libc_init_array>
 80009be:	f7ff fd4f 	bl	8000460 <main>

080009c2 <LoopForever>:
 80009c2:	e7fe      	b.n	80009c2 <LoopForever>
 80009c4:	20001000 	.word	0x20001000
 80009c8:	20000000 	.word	0x20000000
 80009cc:	2000000c 	.word	0x2000000c
 80009d0:	08001e94 	.word	0x08001e94
 80009d4:	2000000c 	.word	0x2000000c
 80009d8:	2000031c 	.word	0x2000031c

080009dc <ADC1_IRQHandler>:
 80009dc:	e7fe      	b.n	80009dc <ADC1_IRQHandler>
	...

080009e0 <HAL_InitTick>:
 80009e0:	b570      	push	{r4, r5, r6, lr}
 80009e2:	0005      	movs	r5, r0
 80009e4:	20fa      	movs	r0, #250	@ 0xfa
 80009e6:	4b0d      	ldr	r3, [pc, #52]	@ (8000a1c <HAL_InitTick+0x3c>)
 80009e8:	0080      	lsls	r0, r0, #2
 80009ea:	7819      	ldrb	r1, [r3, #0]
 80009ec:	f7ff fb96 	bl	800011c <__udivsi3>
 80009f0:	4c0b      	ldr	r4, [pc, #44]	@ (8000a20 <HAL_InitTick+0x40>)
 80009f2:	0001      	movs	r1, r0
 80009f4:	6820      	ldr	r0, [r4, #0]
 80009f6:	f7ff fb91 	bl	800011c <__udivsi3>
 80009fa:	f000 f87f 	bl	8000afc <HAL_SYSTICK_Config>
 80009fe:	0004      	movs	r4, r0
 8000a00:	2001      	movs	r0, #1
 8000a02:	2c00      	cmp	r4, #0
 8000a04:	d109      	bne.n	8000a1a <HAL_InitTick+0x3a>
 8000a06:	2d03      	cmp	r5, #3
 8000a08:	d807      	bhi.n	8000a1a <HAL_InitTick+0x3a>
 8000a0a:	3802      	subs	r0, #2
 8000a0c:	0022      	movs	r2, r4
 8000a0e:	0029      	movs	r1, r5
 8000a10:	f000 f83e 	bl	8000a90 <HAL_NVIC_SetPriority>
 8000a14:	0020      	movs	r0, r4
 8000a16:	4b03      	ldr	r3, [pc, #12]	@ (8000a24 <HAL_InitTick+0x44>)
 8000a18:	601d      	str	r5, [r3, #0]
 8000a1a:	bd70      	pop	{r4, r5, r6, pc}
 8000a1c:	20000004 	.word	0x20000004
 8000a20:	20000000 	.word	0x20000000
 8000a24:	20000008 	.word	0x20000008

08000a28 <HAL_Init>:
 8000a28:	2310      	movs	r3, #16
 8000a2a:	4a06      	ldr	r2, [pc, #24]	@ (8000a44 <HAL_Init+0x1c>)
 8000a2c:	b510      	push	{r4, lr}
 8000a2e:	6811      	ldr	r1, [r2, #0]
 8000a30:	2003      	movs	r0, #3
 8000a32:	430b      	orrs	r3, r1
 8000a34:	6013      	str	r3, [r2, #0]
 8000a36:	f7ff ffd3 	bl	80009e0 <HAL_InitTick>
 8000a3a:	f7ff fde5 	bl	8000608 <HAL_MspInit>
 8000a3e:	2000      	movs	r0, #0
 8000a40:	bd10      	pop	{r4, pc}
 8000a42:	46c0      	nop			@ (mov r8, r8)
 8000a44:	40022000 	.word	0x40022000

08000a48 <HAL_IncTick>:
 8000a48:	4a03      	ldr	r2, [pc, #12]	@ (8000a58 <HAL_IncTick+0x10>)
 8000a4a:	4b04      	ldr	r3, [pc, #16]	@ (8000a5c <HAL_IncTick+0x14>)
 8000a4c:	6811      	ldr	r1, [r2, #0]
 8000a4e:	781b      	ldrb	r3, [r3, #0]
 8000a50:	185b      	adds	r3, r3, r1
 8000a52:	6013      	str	r3, [r2, #0]
 8000a54:	4770      	bx	lr
 8000a56:	46c0      	nop			@ (mov r8, r8)
 8000a58:	20000318 	.word	0x20000318
 8000a5c:	20000004 	.word	0x20000004

08000a60 <HAL_GetTick>:
 8000a60:	4b01      	ldr	r3, [pc, #4]	@ (8000a68 <HAL_GetTick+0x8>)
 8000a62:	6818      	ldr	r0, [r3, #0]
 8000a64:	4770      	bx	lr
 8000a66:	46c0      	nop			@ (mov r8, r8)
 8000a68:	20000318 	.word	0x20000318

08000a6c <HAL_Delay>:
 8000a6c:	b570      	push	{r4, r5, r6, lr}
 8000a6e:	0004      	movs	r4, r0
 8000a70:	f7ff fff6 	bl	8000a60 <HAL_GetTick>
 8000a74:	0005      	movs	r5, r0
 8000a76:	1c63      	adds	r3, r4, #1
 8000a78:	d002      	beq.n	8000a80 <HAL_Delay+0x14>
 8000a7a:	4b04      	ldr	r3, [pc, #16]	@ (8000a8c <HAL_Delay+0x20>)
 8000a7c:	781b      	ldrb	r3, [r3, #0]
 8000a7e:	18e4      	adds	r4, r4, r3
 8000a80:	f7ff ffee 	bl	8000a60 <HAL_GetTick>
 8000a84:	1b40      	subs	r0, r0, r5
 8000a86:	42a0      	cmp	r0, r4
 8000a88:	d3fa      	bcc.n	8000a80 <HAL_Delay+0x14>
 8000a8a:	bd70      	pop	{r4, r5, r6, pc}
 8000a8c:	20000004 	.word	0x20000004

08000a90 <HAL_NVIC_SetPriority>:
 8000a90:	b510      	push	{r4, lr}
 8000a92:	24ff      	movs	r4, #255	@ 0xff
 8000a94:	2203      	movs	r2, #3
 8000a96:	000b      	movs	r3, r1
 8000a98:	0021      	movs	r1, r4
 8000a9a:	4002      	ands	r2, r0
 8000a9c:	00d2      	lsls	r2, r2, #3
 8000a9e:	4091      	lsls	r1, r2
 8000aa0:	019b      	lsls	r3, r3, #6
 8000aa2:	4023      	ands	r3, r4
 8000aa4:	43c9      	mvns	r1, r1
 8000aa6:	4093      	lsls	r3, r2
 8000aa8:	2800      	cmp	r0, #0
 8000aaa:	db0a      	blt.n	8000ac2 <HAL_NVIC_SetPriority+0x32>
 8000aac:	24c0      	movs	r4, #192	@ 0xc0
 8000aae:	4a0b      	ldr	r2, [pc, #44]	@ (8000adc <HAL_NVIC_SetPriority+0x4c>)
 8000ab0:	0880      	lsrs	r0, r0, #2
 8000ab2:	0080      	lsls	r0, r0, #2
 8000ab4:	1880      	adds	r0, r0, r2
 8000ab6:	00a4      	lsls	r4, r4, #2
 8000ab8:	5902      	ldr	r2, [r0, r4]
 8000aba:	400a      	ands	r2, r1
 8000abc:	4313      	orrs	r3, r2
 8000abe:	5103      	str	r3, [r0, r4]
 8000ac0:	bd10      	pop	{r4, pc}
 8000ac2:	220f      	movs	r2, #15
 8000ac4:	4010      	ands	r0, r2
 8000ac6:	3808      	subs	r0, #8
 8000ac8:	4a05      	ldr	r2, [pc, #20]	@ (8000ae0 <HAL_NVIC_SetPriority+0x50>)
 8000aca:	0880      	lsrs	r0, r0, #2
 8000acc:	0080      	lsls	r0, r0, #2
 8000ace:	1880      	adds	r0, r0, r2
 8000ad0:	69c2      	ldr	r2, [r0, #28]
 8000ad2:	4011      	ands	r1, r2
 8000ad4:	4319      	orrs	r1, r3
 8000ad6:	61c1      	str	r1, [r0, #28]
 8000ad8:	e7f2      	b.n	8000ac0 <HAL_NVIC_SetPriority+0x30>
 8000ada:	46c0      	nop			@ (mov r8, r8)
 8000adc:	e000e100 	.word	0xe000e100
 8000ae0:	e000ed00 	.word	0xe000ed00

08000ae4 <HAL_NVIC_EnableIRQ>:
 8000ae4:	2800      	cmp	r0, #0
 8000ae6:	db05      	blt.n	8000af4 <HAL_NVIC_EnableIRQ+0x10>
 8000ae8:	231f      	movs	r3, #31
 8000aea:	4018      	ands	r0, r3
 8000aec:	3b1e      	subs	r3, #30
 8000aee:	4083      	lsls	r3, r0
 8000af0:	4a01      	ldr	r2, [pc, #4]	@ (8000af8 <HAL_NVIC_EnableIRQ+0x14>)
 8000af2:	6013      	str	r3, [r2, #0]
 8000af4:	4770      	bx	lr
 8000af6:	46c0      	nop			@ (mov r8, r8)
 8000af8:	e000e100 	.word	0xe000e100

08000afc <HAL_SYSTICK_Config>:
 8000afc:	2280      	movs	r2, #128	@ 0x80
 8000afe:	1e43      	subs	r3, r0, #1
 8000b00:	0452      	lsls	r2, r2, #17
 8000b02:	2001      	movs	r0, #1
 8000b04:	4293      	cmp	r3, r2
 8000b06:	d20d      	bcs.n	8000b24 <HAL_SYSTICK_Config+0x28>
 8000b08:	21c0      	movs	r1, #192	@ 0xc0
 8000b0a:	4a07      	ldr	r2, [pc, #28]	@ (8000b28 <HAL_SYSTICK_Config+0x2c>)
 8000b0c:	4807      	ldr	r0, [pc, #28]	@ (8000b2c <HAL_SYSTICK_Config+0x30>)
 8000b0e:	6053      	str	r3, [r2, #4]
 8000b10:	6a03      	ldr	r3, [r0, #32]
 8000b12:	0609      	lsls	r1, r1, #24
 8000b14:	021b      	lsls	r3, r3, #8
 8000b16:	0a1b      	lsrs	r3, r3, #8
 8000b18:	430b      	orrs	r3, r1
 8000b1a:	6203      	str	r3, [r0, #32]
 8000b1c:	2000      	movs	r0, #0
 8000b1e:	2307      	movs	r3, #7
 8000b20:	6090      	str	r0, [r2, #8]
 8000b22:	6013      	str	r3, [r2, #0]
 8000b24:	4770      	bx	lr
 8000b26:	46c0      	nop			@ (mov r8, r8)
 8000b28:	e000e010 	.word	0xe000e010
 8000b2c:	e000ed00 	.word	0xe000ed00

08000b30 <HAL_DMA_Init>:
 8000b30:	b570      	push	{r4, r5, r6, lr}
 8000b32:	0004      	movs	r4, r0
 8000b34:	2001      	movs	r0, #1
 8000b36:	2c00      	cmp	r4, #0
 8000b38:	d024      	beq.n	8000b84 <HAL_DMA_Init+0x54>
 8000b3a:	2302      	movs	r3, #2
 8000b3c:	1ca5      	adds	r5, r4, #2
 8000b3e:	77eb      	strb	r3, [r5, #31]
 8000b40:	6820      	ldr	r0, [r4, #0]
 8000b42:	4b11      	ldr	r3, [pc, #68]	@ (8000b88 <HAL_DMA_Init+0x58>)
 8000b44:	6802      	ldr	r2, [r0, #0]
 8000b46:	68a1      	ldr	r1, [r4, #8]
 8000b48:	401a      	ands	r2, r3
 8000b4a:	6863      	ldr	r3, [r4, #4]
 8000b4c:	430b      	orrs	r3, r1
 8000b4e:	68e1      	ldr	r1, [r4, #12]
 8000b50:	430b      	orrs	r3, r1
 8000b52:	6921      	ldr	r1, [r4, #16]
 8000b54:	430b      	orrs	r3, r1
 8000b56:	6961      	ldr	r1, [r4, #20]
 8000b58:	430b      	orrs	r3, r1
 8000b5a:	69a1      	ldr	r1, [r4, #24]
 8000b5c:	430b      	orrs	r3, r1
 8000b5e:	69e1      	ldr	r1, [r4, #28]
 8000b60:	430b      	orrs	r3, r1
 8000b62:	4313      	orrs	r3, r2
 8000b64:	6003      	str	r3, [r0, #0]
 8000b66:	4b09      	ldr	r3, [pc, #36]	@ (8000b8c <HAL_DMA_Init+0x5c>)
 8000b68:	2114      	movs	r1, #20
 8000b6a:	18c0      	adds	r0, r0, r3
 8000b6c:	f7ff fad6 	bl	800011c <__udivsi3>
 8000b70:	4b07      	ldr	r3, [pc, #28]	@ (8000b90 <HAL_DMA_Init+0x60>)
 8000b72:	0080      	lsls	r0, r0, #2
 8000b74:	6420      	str	r0, [r4, #64]	@ 0x40
 8000b76:	63e3      	str	r3, [r4, #60]	@ 0x3c
 8000b78:	2000      	movs	r0, #0
 8000b7a:	2301      	movs	r3, #1
 8000b7c:	63a0      	str	r0, [r4, #56]	@ 0x38
 8000b7e:	18e4      	adds	r4, r4, r3
 8000b80:	77eb      	strb	r3, [r5, #31]
 8000b82:	77e0      	strb	r0, [r4, #31]
 8000b84:	bd70      	pop	{r4, r5, r6, pc}
 8000b86:	46c0      	nop			@ (mov r8, r8)
 8000b88:	ffffc00f 	.word	0xffffc00f
 8000b8c:	bffdfff8 	.word	0xbffdfff8
 8000b90:	40020000 	.word	0x40020000

08000b94 <HAL_DMA_Start_IT>:
 8000b94:	b5f7      	push	{r0, r1, r2, r4, r5, r6, r7, lr}
 8000b96:	1c44      	adds	r4, r0, #1
 8000b98:	9301      	str	r3, [sp, #4]
 8000b9a:	7fe5      	ldrb	r5, [r4, #31]
 8000b9c:	2d01      	cmp	r5, #1
 8000b9e:	d033      	beq.n	8000c08 <HAL_DMA_Start_IT+0x74>
 8000ba0:	2501      	movs	r5, #1
 8000ba2:	1c87      	adds	r7, r0, #2
 8000ba4:	77e5      	strb	r5, [r4, #31]
 8000ba6:	7ffd      	ldrb	r5, [r7, #31]
 8000ba8:	2600      	movs	r6, #0
 8000baa:	46ac      	mov	ip, r5
 8000bac:	4663      	mov	r3, ip
 8000bae:	b2ed      	uxtb	r5, r5
 8000bb0:	2b01      	cmp	r3, #1
 8000bb2:	d128      	bne.n	8000c06 <HAL_DMA_Start_IT+0x72>
 8000bb4:	2402      	movs	r4, #2
 8000bb6:	77fc      	strb	r4, [r7, #31]
 8000bb8:	6804      	ldr	r4, [r0, #0]
 8000bba:	6386      	str	r6, [r0, #56]	@ 0x38
 8000bbc:	6826      	ldr	r6, [r4, #0]
 8000bbe:	6c07      	ldr	r7, [r0, #64]	@ 0x40
 8000bc0:	43ae      	bics	r6, r5
 8000bc2:	40bd      	lsls	r5, r7
 8000bc4:	6026      	str	r6, [r4, #0]
 8000bc6:	9b01      	ldr	r3, [sp, #4]
 8000bc8:	6bc6      	ldr	r6, [r0, #60]	@ 0x3c
 8000bca:	6075      	str	r5, [r6, #4]
 8000bcc:	6063      	str	r3, [r4, #4]
 8000bce:	6843      	ldr	r3, [r0, #4]
 8000bd0:	2b10      	cmp	r3, #16
 8000bd2:	d10e      	bne.n	8000bf2 <HAL_DMA_Start_IT+0x5e>
 8000bd4:	60a2      	str	r2, [r4, #8]
 8000bd6:	60e1      	str	r1, [r4, #12]
 8000bd8:	6ac3      	ldr	r3, [r0, #44]	@ 0x2c
 8000bda:	6822      	ldr	r2, [r4, #0]
 8000bdc:	2b00      	cmp	r3, #0
 8000bde:	d00b      	beq.n	8000bf8 <HAL_DMA_Start_IT+0x64>
 8000be0:	230e      	movs	r3, #14
 8000be2:	4313      	orrs	r3, r2
 8000be4:	6023      	str	r3, [r4, #0]
 8000be6:	2301      	movs	r3, #1
 8000be8:	2000      	movs	r0, #0
 8000bea:	6822      	ldr	r2, [r4, #0]
 8000bec:	4313      	orrs	r3, r2
 8000bee:	6023      	str	r3, [r4, #0]
 8000bf0:	bdfe      	pop	{r1, r2, r3, r4, r5, r6, r7, pc}
 8000bf2:	60a1      	str	r1, [r4, #8]
 8000bf4:	60e2      	str	r2, [r4, #12]
 8000bf6:	e7ef      	b.n	8000bd8 <HAL_DMA_Start_IT+0x44>
 8000bf8:	230a      	movs	r3, #10
 8000bfa:	4313      	orrs	r3, r2
 8000bfc:	2204      	movs	r2, #4
 8000bfe:	6023      	str	r3, [r4, #0]
 8000c00:	6823      	ldr	r3, [r4, #0]
 8000c02:	4393      	bics	r3, r2
 8000c04:	e7ee      	b.n	8000be4 <HAL_DMA_Start_IT+0x50>
 8000c06:	77e6      	strb	r6, [r4, #31]
 8000c08:	2002      	movs	r0, #2
 8000c0a:	e7f1      	b.n	8000bf0 <HAL_DMA_Start_IT+0x5c>

08000c0c <HAL_DMA_Abort_IT>:
 8000c0c:	b570      	push	{r4, r5, r6, lr}
 8000c0e:	1c84      	adds	r4, r0, #2
 8000c10:	7fe3      	ldrb	r3, [r4, #31]
 8000c12:	2b02      	cmp	r3, #2
 8000c14:	d003      	beq.n	8000c1e <HAL_DMA_Abort_IT+0x12>
 8000c16:	2304      	movs	r3, #4
 8000c18:	6383      	str	r3, [r0, #56]	@ 0x38
 8000c1a:	2001      	movs	r0, #1
 8000c1c:	bd70      	pop	{r4, r5, r6, pc}
 8000c1e:	210e      	movs	r1, #14
 8000c20:	6803      	ldr	r3, [r0, #0]
 8000c22:	681a      	ldr	r2, [r3, #0]
 8000c24:	438a      	bics	r2, r1
 8000c26:	601a      	str	r2, [r3, #0]
 8000c28:	2201      	movs	r2, #1
 8000c2a:	0015      	movs	r5, r2
 8000c2c:	6819      	ldr	r1, [r3, #0]
 8000c2e:	4391      	bics	r1, r2
 8000c30:	6019      	str	r1, [r3, #0]
 8000c32:	6c01      	ldr	r1, [r0, #64]	@ 0x40
 8000c34:	6bc3      	ldr	r3, [r0, #60]	@ 0x3c
 8000c36:	408d      	lsls	r5, r1
 8000c38:	605d      	str	r5, [r3, #4]
 8000c3a:	77e2      	strb	r2, [r4, #31]
 8000c3c:	1883      	adds	r3, r0, r2
 8000c3e:	2200      	movs	r2, #0
 8000c40:	77da      	strb	r2, [r3, #31]
 8000c42:	6b43      	ldr	r3, [r0, #52]	@ 0x34
 8000c44:	4293      	cmp	r3, r2
 8000c46:	d000      	beq.n	8000c4a <HAL_DMA_Abort_IT+0x3e>
 8000c48:	4798      	blx	r3
 8000c4a:	2000      	movs	r0, #0
 8000c4c:	e7e6      	b.n	8000c1c <HAL_DMA_Abort_IT+0x10>

08000c4e <HAL_DMA_IRQHandler>:
 8000c4e:	b5f8      	push	{r3, r4, r5, r6, r7, lr}
 8000c50:	2704      	movs	r7, #4
 8000c52:	003e      	movs	r6, r7
 8000c54:	6c01      	ldr	r1, [r0, #64]	@ 0x40
 8000c56:	6bc2      	ldr	r2, [r0, #60]	@ 0x3c
 8000c58:	408e      	lsls	r6, r1
 8000c5a:	6815      	ldr	r5, [r2, #0]
 8000c5c:	6803      	ldr	r3, [r0, #0]
 8000c5e:	681c      	ldr	r4, [r3, #0]
 8000c60:	4235      	tst	r5, r6
 8000c62:	d00d      	beq.n	8000c80 <HAL_DMA_IRQHandler+0x32>
 8000c64:	423c      	tst	r4, r7
 8000c66:	d00b      	beq.n	8000c80 <HAL_DMA_IRQHandler+0x32>
 8000c68:	6819      	ldr	r1, [r3, #0]
 8000c6a:	0689      	lsls	r1, r1, #26
 8000c6c:	d402      	bmi.n	8000c74 <HAL_DMA_IRQHandler+0x26>
 8000c6e:	6819      	ldr	r1, [r3, #0]
 8000c70:	43b9      	bics	r1, r7
 8000c72:	6019      	str	r1, [r3, #0]
 8000c74:	6ac3      	ldr	r3, [r0, #44]	@ 0x2c
 8000c76:	6056      	str	r6, [r2, #4]
 8000c78:	2b00      	cmp	r3, #0
 8000c7a:	d019      	beq.n	8000cb0 <HAL_DMA_IRQHandler+0x62>
 8000c7c:	4798      	blx	r3
 8000c7e:	e017      	b.n	8000cb0 <HAL_DMA_IRQHandler+0x62>
 8000c80:	2702      	movs	r7, #2
 8000c82:	003e      	movs	r6, r7
 8000c84:	408e      	lsls	r6, r1
 8000c86:	4235      	tst	r5, r6
 8000c88:	d013      	beq.n	8000cb2 <HAL_DMA_IRQHandler+0x64>
 8000c8a:	423c      	tst	r4, r7
 8000c8c:	d011      	beq.n	8000cb2 <HAL_DMA_IRQHandler+0x64>
 8000c8e:	6819      	ldr	r1, [r3, #0]
 8000c90:	0689      	lsls	r1, r1, #26
 8000c92:	d406      	bmi.n	8000ca2 <HAL_DMA_IRQHandler+0x54>
 8000c94:	240a      	movs	r4, #10
 8000c96:	6819      	ldr	r1, [r3, #0]
 8000c98:	43a1      	bics	r1, r4
 8000c9a:	6019      	str	r1, [r3, #0]
 8000c9c:	2101      	movs	r1, #1
 8000c9e:	19c3      	adds	r3, r0, r7
 8000ca0:	77d9      	strb	r1, [r3, #31]
 8000ca2:	6056      	str	r6, [r2, #4]
 8000ca4:	2200      	movs	r2, #0
 8000ca6:	1c43      	adds	r3, r0, #1
 8000ca8:	77da      	strb	r2, [r3, #31]
 8000caa:	6a83      	ldr	r3, [r0, #40]	@ 0x28
 8000cac:	4293      	cmp	r3, r2
 8000cae:	d1e5      	bne.n	8000c7c <HAL_DMA_IRQHandler+0x2e>
 8000cb0:	bdf8      	pop	{r3, r4, r5, r6, r7, pc}
 8000cb2:	2608      	movs	r6, #8
 8000cb4:	0037      	movs	r7, r6
 8000cb6:	408f      	lsls	r7, r1
 8000cb8:	423d      	tst	r5, r7
 8000cba:	d0f9      	beq.n	8000cb0 <HAL_DMA_IRQHandler+0x62>
 8000cbc:	4234      	tst	r4, r6
 8000cbe:	d0f7      	beq.n	8000cb0 <HAL_DMA_IRQHandler+0x62>
 8000cc0:	250e      	movs	r5, #14
 8000cc2:	681c      	ldr	r4, [r3, #0]
 8000cc4:	43ac      	bics	r4, r5
 8000cc6:	601c      	str	r4, [r3, #0]
 8000cc8:	2301      	movs	r3, #1
 8000cca:	001c      	movs	r4, r3
 8000ccc:	408c      	lsls	r4, r1
 8000cce:	6054      	str	r4, [r2, #4]
 8000cd0:	1c82      	adds	r2, r0, #2
 8000cd2:	6383      	str	r3, [r0, #56]	@ 0x38
 8000cd4:	77d3      	strb	r3, [r2, #31]
 8000cd6:	2200      	movs	r2, #0
 8000cd8:	18c3      	adds	r3, r0, r3
 8000cda:	77da      	strb	r2, [r3, #31]
 8000cdc:	6b03      	ldr	r3, [r0, #48]	@ 0x30
 8000cde:	e7e5      	b.n	8000cac <HAL_DMA_IRQHandler+0x5e>

08000ce0 <HAL_GPIO_Init>:
 8000ce0:	2300      	movs	r3, #0
 8000ce2:	b5f0      	push	{r4, r5, r6, r7, lr}
 8000ce4:	b087      	sub	sp, #28
 8000ce6:	680a      	ldr	r2, [r1, #0]
 8000ce8:	0014      	movs	r4, r2
 8000cea:	40dc      	lsrs	r4, r3
 8000cec:	d101      	bne.n	8000cf2 <HAL_GPIO_Init+0x12>
 8000cee:	b007      	add	sp, #28
 8000cf0:	bdf0      	pop	{r4, r5, r6, r7, pc}
 8000cf2:	2501      	movs	r5, #1
 8000cf4:	0014      	movs	r4, r2
 8000cf6:	409d      	lsls	r5, r3
 8000cf8:	402c      	ands	r4, r5
 8000cfa:	9400      	str	r4, [sp, #0]
 8000cfc:	422a      	tst	r2, r5
 8000cfe:	d100      	bne.n	8000d02 <HAL_GPIO_Init+0x22>
 8000d00:	e098      	b.n	8000e34 <HAL_GPIO_Init+0x154>
 8000d02:	684a      	ldr	r2, [r1, #4]
 8000d04:	005f      	lsls	r7, r3, #1
 8000d06:	4694      	mov	ip, r2
 8000d08:	2203      	movs	r2, #3
 8000d0a:	4664      	mov	r4, ip
 8000d0c:	4022      	ands	r2, r4
 8000d0e:	2403      	movs	r4, #3
 8000d10:	40bc      	lsls	r4, r7
 8000d12:	43e4      	mvns	r4, r4
 8000d14:	9401      	str	r4, [sp, #4]
 8000d16:	1e54      	subs	r4, r2, #1
 8000d18:	2c01      	cmp	r4, #1
 8000d1a:	d82e      	bhi.n	8000d7a <HAL_GPIO_Init+0x9a>
 8000d1c:	6886      	ldr	r6, [r0, #8]
 8000d1e:	9c01      	ldr	r4, [sp, #4]
 8000d20:	4026      	ands	r6, r4
 8000d22:	68cc      	ldr	r4, [r1, #12]
 8000d24:	40bc      	lsls	r4, r7
 8000d26:	4334      	orrs	r4, r6
 8000d28:	6084      	str	r4, [r0, #8]
 8000d2a:	6844      	ldr	r4, [r0, #4]
 8000d2c:	2601      	movs	r6, #1
 8000d2e:	43ac      	bics	r4, r5
 8000d30:	0025      	movs	r5, r4
 8000d32:	4664      	mov	r4, ip
 8000d34:	0924      	lsrs	r4, r4, #4
 8000d36:	4034      	ands	r4, r6
 8000d38:	409c      	lsls	r4, r3
 8000d3a:	432c      	orrs	r4, r5
 8000d3c:	6044      	str	r4, [r0, #4]
 8000d3e:	68c5      	ldr	r5, [r0, #12]
 8000d40:	9c01      	ldr	r4, [sp, #4]
 8000d42:	4025      	ands	r5, r4
 8000d44:	688c      	ldr	r4, [r1, #8]
 8000d46:	40bc      	lsls	r4, r7
 8000d48:	432c      	orrs	r4, r5
 8000d4a:	60c4      	str	r4, [r0, #12]
 8000d4c:	2a02      	cmp	r2, #2
 8000d4e:	d116      	bne.n	8000d7e <HAL_GPIO_Init+0x9e>
 8000d50:	2507      	movs	r5, #7
 8000d52:	260f      	movs	r6, #15
 8000d54:	401d      	ands	r5, r3
 8000d56:	00ad      	lsls	r5, r5, #2
 8000d58:	40ae      	lsls	r6, r5
 8000d5a:	08dc      	lsrs	r4, r3, #3
 8000d5c:	00a4      	lsls	r4, r4, #2
 8000d5e:	1904      	adds	r4, r0, r4
 8000d60:	9402      	str	r4, [sp, #8]
 8000d62:	6a24      	ldr	r4, [r4, #32]
 8000d64:	9603      	str	r6, [sp, #12]
 8000d66:	0026      	movs	r6, r4
 8000d68:	9c03      	ldr	r4, [sp, #12]
 8000d6a:	43a6      	bics	r6, r4
 8000d6c:	0034      	movs	r4, r6
 8000d6e:	690e      	ldr	r6, [r1, #16]
 8000d70:	40ae      	lsls	r6, r5
 8000d72:	4326      	orrs	r6, r4
 8000d74:	9c02      	ldr	r4, [sp, #8]
 8000d76:	6226      	str	r6, [r4, #32]
 8000d78:	e001      	b.n	8000d7e <HAL_GPIO_Init+0x9e>
 8000d7a:	2a03      	cmp	r2, #3
 8000d7c:	d1df      	bne.n	8000d3e <HAL_GPIO_Init+0x5e>
 8000d7e:	40ba      	lsls	r2, r7
 8000d80:	6804      	ldr	r4, [r0, #0]
 8000d82:	9d01      	ldr	r5, [sp, #4]
 8000d84:	4025      	ands	r5, r4
 8000d86:	432a      	orrs	r2, r5
 8000d88:	24c0      	movs	r4, #192	@ 0xc0
 8000d8a:	6002      	str	r2, [r0, #0]
 8000d8c:	4662      	mov	r2, ip
 8000d8e:	02a4      	lsls	r4, r4, #10
 8000d90:	4222      	tst	r2, r4
 8000d92:	d04f      	beq.n	8000e34 <HAL_GPIO_Init+0x154>
 8000d94:	2501      	movs	r5, #1
 8000d96:	4a28      	ldr	r2, [pc, #160]	@ (8000e38 <HAL_GPIO_Init+0x158>)
 8000d98:	2790      	movs	r7, #144	@ 0x90
 8000d9a:	6994      	ldr	r4, [r2, #24]
 8000d9c:	05ff      	lsls	r7, r7, #23
 8000d9e:	432c      	orrs	r4, r5
 8000da0:	6194      	str	r4, [r2, #24]
 8000da2:	6992      	ldr	r2, [r2, #24]
 8000da4:	089c      	lsrs	r4, r3, #2
 8000da6:	402a      	ands	r2, r5
 8000da8:	9205      	str	r2, [sp, #20]
 8000daa:	9a05      	ldr	r2, [sp, #20]
 8000dac:	4a23      	ldr	r2, [pc, #140]	@ (8000e3c <HAL_GPIO_Init+0x15c>)
 8000dae:	00a4      	lsls	r4, r4, #2
 8000db0:	18a4      	adds	r4, r4, r2
 8000db2:	220f      	movs	r2, #15
 8000db4:	3502      	adds	r5, #2
 8000db6:	401d      	ands	r5, r3
 8000db8:	00ad      	lsls	r5, r5, #2
 8000dba:	40aa      	lsls	r2, r5
 8000dbc:	68a6      	ldr	r6, [r4, #8]
 8000dbe:	4396      	bics	r6, r2
 8000dc0:	2200      	movs	r2, #0
 8000dc2:	42b8      	cmp	r0, r7
 8000dc4:	d00c      	beq.n	8000de0 <HAL_GPIO_Init+0x100>
 8000dc6:	4f1e      	ldr	r7, [pc, #120]	@ (8000e40 <HAL_GPIO_Init+0x160>)
 8000dc8:	3201      	adds	r2, #1
 8000dca:	42b8      	cmp	r0, r7
 8000dcc:	d008      	beq.n	8000de0 <HAL_GPIO_Init+0x100>
 8000dce:	4f1d      	ldr	r7, [pc, #116]	@ (8000e44 <HAL_GPIO_Init+0x164>)
 8000dd0:	3201      	adds	r2, #1
 8000dd2:	42b8      	cmp	r0, r7
 8000dd4:	d004      	beq.n	8000de0 <HAL_GPIO_Init+0x100>
 8000dd6:	4f1c      	ldr	r7, [pc, #112]	@ (8000e48 <HAL_GPIO_Init+0x168>)
 8000dd8:	3203      	adds	r2, #3
 8000dda:	42b8      	cmp	r0, r7
 8000ddc:	d100      	bne.n	8000de0 <HAL_GPIO_Init+0x100>
 8000dde:	3a02      	subs	r2, #2
 8000de0:	40aa      	lsls	r2, r5
 8000de2:	4667      	mov	r7, ip
 8000de4:	4332      	orrs	r2, r6
 8000de6:	60a2      	str	r2, [r4, #8]
 8000de8:	4a18      	ldr	r2, [pc, #96]	@ (8000e4c <HAL_GPIO_Init+0x16c>)
 8000dea:	9c00      	ldr	r4, [sp, #0]
 8000dec:	6896      	ldr	r6, [r2, #8]
 8000dee:	9d00      	ldr	r5, [sp, #0]
 8000df0:	43e4      	mvns	r4, r4
 8000df2:	4335      	orrs	r5, r6
 8000df4:	02ff      	lsls	r7, r7, #11
 8000df6:	d401      	bmi.n	8000dfc <HAL_GPIO_Init+0x11c>
 8000df8:	0035      	movs	r5, r6
 8000dfa:	4025      	ands	r5, r4
 8000dfc:	4667      	mov	r7, ip
 8000dfe:	6095      	str	r5, [r2, #8]
 8000e00:	68d6      	ldr	r6, [r2, #12]
 8000e02:	9d00      	ldr	r5, [sp, #0]
 8000e04:	4335      	orrs	r5, r6
 8000e06:	02bf      	lsls	r7, r7, #10
 8000e08:	d401      	bmi.n	8000e0e <HAL_GPIO_Init+0x12e>
 8000e0a:	0035      	movs	r5, r6
 8000e0c:	4025      	ands	r5, r4
 8000e0e:	4667      	mov	r7, ip
 8000e10:	60d5      	str	r5, [r2, #12]
 8000e12:	6856      	ldr	r6, [r2, #4]
 8000e14:	9d00      	ldr	r5, [sp, #0]
 8000e16:	4335      	orrs	r5, r6
 8000e18:	03bf      	lsls	r7, r7, #14
 8000e1a:	d401      	bmi.n	8000e20 <HAL_GPIO_Init+0x140>
 8000e1c:	0035      	movs	r5, r6
 8000e1e:	4025      	ands	r5, r4
 8000e20:	4667      	mov	r7, ip
 8000e22:	6055      	str	r5, [r2, #4]
 8000e24:	6815      	ldr	r5, [r2, #0]
 8000e26:	9e00      	ldr	r6, [sp, #0]
 8000e28:	432e      	orrs	r6, r5
 8000e2a:	03ff      	lsls	r7, r7, #15
 8000e2c:	d401      	bmi.n	8000e32 <HAL_GPIO_Init+0x152>
 8000e2e:	4025      	ands	r5, r4
 8000e30:	002e      	movs	r6, r5
 8000e32:	6016      	str	r6, [r2, #0]
 8000e34:	3301      	adds	r3, #1
 8000e36:	e756      	b.n	8000ce6 <HAL_GPIO_Init+0x6>
 8000e38:	40021000 	.word	0x40021000
 8000e3c:	40010000 	.word	0x40010000
 8000e40:	48000400 	.word	0x48000400
 8000e44:	48000800 	.word	0x48000800
 8000e48:	48000c00 	.word	0x48000c00
 8000e4c:	40010400 	.word	0x40010400

08000e50 <HAL_RCC_OscConfig>:
 8000e50:	b5f0      	push	{r4, r5, r6, r7, lr}
 8000e52:	0004      	movs	r4, r0
 8000e54:	b085      	sub	sp, #20
 8000e56:	2800      	cmp	r0, #0
 8000e58:	d045      	beq.n	8000ee6 <HAL_RCC_OscConfig+0x96>
 8000e5a:	6803      	ldr	r3, [r0, #0]
 8000e5c:	07db      	lsls	r3, r3, #31
 8000e5e:	d42f      	bmi.n	8000ec0 <HAL_RCC_OscConfig+0x70>
 8000e60:	6823      	ldr	r3, [r4, #0]
 8000e62:	079b      	lsls	r3, r3, #30
 8000e64:	d500      	bpl.n	8000e68 <HAL_RCC_OscConfig+0x18>
 8000e66:	e081      	b.n	8000f6c <HAL_RCC_OscConfig+0x11c>
 8000e68:	6823      	ldr	r3, [r4, #0]
 8000e6a:	071b      	lsls	r3, r3, #28
 8000e6c:	d500      	bpl.n	8000e70 <HAL_RCC_OscConfig+0x20>
 8000e6e:	e0bc      	b.n	8000fea <HAL_RCC_OscConfig+0x19a>
 8000e70:	6823      	ldr	r3, [r4, #0]
 8000e72:	075b      	lsls	r3, r3, #29
 8000e74:	d500      	bpl.n	8000e78 <HAL_RCC_OscConfig+0x28>
 8000e76:	e0df      	b.n	8001038 <HAL_RCC_OscConfig+0x1e8>
 8000e78:	6823      	ldr	r3, [r4, #0]
 8000e7a:	06db      	lsls	r3, r3, #27
 8000e7c:	d51a      	bpl.n	8000eb4 <HAL_RCC_OscConfig+0x64>
 8000e7e:	6962      	ldr	r2, [r4, #20]
 8000e80:	2304      	movs	r3, #4
 8000e82:	4db4      	ldr	r5, [pc, #720]	@ (8001154 <HAL_RCC_OscConfig+0x304>)
 8000e84:	2a01      	cmp	r2, #1
 8000e86:	d000      	beq.n	8000e8a <HAL_RCC_OscConfig+0x3a>
 8000e88:	e148      	b.n	800111c <HAL_RCC_OscConfig+0x2cc>
 8000e8a:	6b69      	ldr	r1, [r5, #52]	@ 0x34
 8000e8c:	2702      	movs	r7, #2
 8000e8e:	430b      	orrs	r3, r1
 8000e90:	636b      	str	r3, [r5, #52]	@ 0x34
 8000e92:	6b6b      	ldr	r3, [r5, #52]	@ 0x34
 8000e94:	431a      	orrs	r2, r3
 8000e96:	636a      	str	r2, [r5, #52]	@ 0x34
 8000e98:	f7ff fde2 	bl	8000a60 <HAL_GetTick>
 8000e9c:	0006      	movs	r6, r0
 8000e9e:	6b6b      	ldr	r3, [r5, #52]	@ 0x34
 8000ea0:	423b      	tst	r3, r7
 8000ea2:	d100      	bne.n	8000ea6 <HAL_RCC_OscConfig+0x56>
 8000ea4:	e133      	b.n	800110e <HAL_RCC_OscConfig+0x2be>
 8000ea6:	21f8      	movs	r1, #248	@ 0xf8
 8000ea8:	6b6a      	ldr	r2, [r5, #52]	@ 0x34
 8000eaa:	69a3      	ldr	r3, [r4, #24]
 8000eac:	438a      	bics	r2, r1
 8000eae:	00db      	lsls	r3, r3, #3
 8000eb0:	4313      	orrs	r3, r2
 8000eb2:	636b      	str	r3, [r5, #52]	@ 0x34
 8000eb4:	6a23      	ldr	r3, [r4, #32]
 8000eb6:	2b00      	cmp	r3, #0
 8000eb8:	d000      	beq.n	8000ebc <HAL_RCC_OscConfig+0x6c>
 8000eba:	e157      	b.n	800116c <HAL_RCC_OscConfig+0x31c>
 8000ebc:	2000      	movs	r0, #0
 8000ebe:	e02a      	b.n	8000f16 <HAL_RCC_OscConfig+0xc6>
 8000ec0:	220c      	movs	r2, #12
 8000ec2:	4da4      	ldr	r5, [pc, #656]	@ (8001154 <HAL_RCC_OscConfig+0x304>)
 8000ec4:	686b      	ldr	r3, [r5, #4]
 8000ec6:	4013      	ands	r3, r2
 8000ec8:	2b04      	cmp	r3, #4
 8000eca:	d006      	beq.n	8000eda <HAL_RCC_OscConfig+0x8a>
 8000ecc:	686b      	ldr	r3, [r5, #4]
 8000ece:	4013      	ands	r3, r2
 8000ed0:	2b08      	cmp	r3, #8
 8000ed2:	d10a      	bne.n	8000eea <HAL_RCC_OscConfig+0x9a>
 8000ed4:	686b      	ldr	r3, [r5, #4]
 8000ed6:	03db      	lsls	r3, r3, #15
 8000ed8:	d507      	bpl.n	8000eea <HAL_RCC_OscConfig+0x9a>
 8000eda:	682b      	ldr	r3, [r5, #0]
 8000edc:	039b      	lsls	r3, r3, #14
 8000ede:	d5bf      	bpl.n	8000e60 <HAL_RCC_OscConfig+0x10>
 8000ee0:	6863      	ldr	r3, [r4, #4]
 8000ee2:	2b00      	cmp	r3, #0
 8000ee4:	d1bc      	bne.n	8000e60 <HAL_RCC_OscConfig+0x10>
 8000ee6:	2001      	movs	r0, #1
 8000ee8:	e015      	b.n	8000f16 <HAL_RCC_OscConfig+0xc6>
 8000eea:	6863      	ldr	r3, [r4, #4]
 8000eec:	2b01      	cmp	r3, #1
 8000eee:	d114      	bne.n	8000f1a <HAL_RCC_OscConfig+0xca>
 8000ef0:	2380      	movs	r3, #128	@ 0x80
 8000ef2:	682a      	ldr	r2, [r5, #0]
 8000ef4:	025b      	lsls	r3, r3, #9
 8000ef6:	4313      	orrs	r3, r2
 8000ef8:	602b      	str	r3, [r5, #0]
 8000efa:	f7ff fdb1 	bl	8000a60 <HAL_GetTick>
 8000efe:	2780      	movs	r7, #128	@ 0x80
 8000f00:	0006      	movs	r6, r0
 8000f02:	02bf      	lsls	r7, r7, #10
 8000f04:	682b      	ldr	r3, [r5, #0]
 8000f06:	423b      	tst	r3, r7
 8000f08:	d1aa      	bne.n	8000e60 <HAL_RCC_OscConfig+0x10>
 8000f0a:	f7ff fda9 	bl	8000a60 <HAL_GetTick>
 8000f0e:	1b80      	subs	r0, r0, r6
 8000f10:	2864      	cmp	r0, #100	@ 0x64
 8000f12:	d9f7      	bls.n	8000f04 <HAL_RCC_OscConfig+0xb4>
 8000f14:	2003      	movs	r0, #3
 8000f16:	b005      	add	sp, #20
 8000f18:	bdf0      	pop	{r4, r5, r6, r7, pc}
 8000f1a:	2b00      	cmp	r3, #0
 8000f1c:	d116      	bne.n	8000f4c <HAL_RCC_OscConfig+0xfc>
 8000f1e:	682b      	ldr	r3, [r5, #0]
 8000f20:	4a8d      	ldr	r2, [pc, #564]	@ (8001158 <HAL_RCC_OscConfig+0x308>)
 8000f22:	2780      	movs	r7, #128	@ 0x80
 8000f24:	4013      	ands	r3, r2
 8000f26:	602b      	str	r3, [r5, #0]
 8000f28:	682b      	ldr	r3, [r5, #0]
 8000f2a:	4a8c      	ldr	r2, [pc, #560]	@ (800115c <HAL_RCC_OscConfig+0x30c>)
 8000f2c:	02bf      	lsls	r7, r7, #10
 8000f2e:	4013      	ands	r3, r2
 8000f30:	602b      	str	r3, [r5, #0]
 8000f32:	f7ff fd95 	bl	8000a60 <HAL_GetTick>
 8000f36:	0006      	movs	r6, r0
 8000f38:	682b      	ldr	r3, [r5, #0]
 8000f3a:	423b      	tst	r3, r7
 8000f3c:	d100      	bne.n	8000f40 <HAL_RCC_OscConfig+0xf0>
 8000f3e:	e78f      	b.n	8000e60 <HAL_RCC_OscConfig+0x10>
 8000f40:	f7ff fd8e 	bl	8000a60 <HAL_GetTick>
 8000f44:	1b80      	subs	r0, r0, r6
 8000f46:	2864      	cmp	r0, #100	@ 0x64
 8000f48:	d9f6      	bls.n	8000f38 <HAL_RCC_OscConfig+0xe8>
 8000f4a:	e7e3      	b.n	8000f14 <HAL_RCC_OscConfig+0xc4>
 8000f4c:	2b05      	cmp	r3, #5
 8000f4e:	d105      	bne.n	8000f5c <HAL_RCC_OscConfig+0x10c>
 8000f50:	2380      	movs	r3, #128	@ 0x80
 8000f52:	682a      	ldr	r2, [r5, #0]
 8000f54:	02db      	lsls	r3, r3, #11
 8000f56:	4313      	orrs	r3, r2
 8000f58:	602b      	str	r3, [r5, #0]
 8000f5a:	e7c9      	b.n	8000ef0 <HAL_RCC_OscConfig+0xa0>
 8000f5c:	682b      	ldr	r3, [r5, #0]
 8000f5e:	4a7e      	ldr	r2, [pc, #504]	@ (8001158 <HAL_RCC_OscConfig+0x308>)
 8000f60:	4013      	ands	r3, r2
 8000f62:	602b      	str	r3, [r5, #0]
 8000f64:	682b      	ldr	r3, [r5, #0]
 8000f66:	4a7d      	ldr	r2, [pc, #500]	@ (800115c <HAL_RCC_OscConfig+0x30c>)
 8000f68:	4013      	ands	r3, r2
 8000f6a:	e7c5      	b.n	8000ef8 <HAL_RCC_OscConfig+0xa8>
 8000f6c:	220c      	movs	r2, #12
 8000f6e:	4d79      	ldr	r5, [pc, #484]	@ (8001154 <HAL_RCC_OscConfig+0x304>)
 8000f70:	686b      	ldr	r3, [r5, #4]
 8000f72:	4213      	tst	r3, r2
 8000f74:	d006      	beq.n	8000f84 <HAL_RCC_OscConfig+0x134>
 8000f76:	686b      	ldr	r3, [r5, #4]
 8000f78:	4013      	ands	r3, r2
 8000f7a:	2b08      	cmp	r3, #8
 8000f7c:	d110      	bne.n	8000fa0 <HAL_RCC_OscConfig+0x150>
 8000f7e:	686b      	ldr	r3, [r5, #4]
 8000f80:	03db      	lsls	r3, r3, #15
 8000f82:	d40d      	bmi.n	8000fa0 <HAL_RCC_OscConfig+0x150>
 8000f84:	682b      	ldr	r3, [r5, #0]
 8000f86:	079b      	lsls	r3, r3, #30
 8000f88:	d502      	bpl.n	8000f90 <HAL_RCC_OscConfig+0x140>
 8000f8a:	68e3      	ldr	r3, [r4, #12]
 8000f8c:	2b01      	cmp	r3, #1
 8000f8e:	d1aa      	bne.n	8000ee6 <HAL_RCC_OscConfig+0x96>
 8000f90:	21f8      	movs	r1, #248	@ 0xf8
 8000f92:	682a      	ldr	r2, [r5, #0]
 8000f94:	6923      	ldr	r3, [r4, #16]
 8000f96:	438a      	bics	r2, r1
 8000f98:	00db      	lsls	r3, r3, #3
 8000f9a:	4313      	orrs	r3, r2
 8000f9c:	602b      	str	r3, [r5, #0]
 8000f9e:	e763      	b.n	8000e68 <HAL_RCC_OscConfig+0x18>
 8000fa0:	68e2      	ldr	r2, [r4, #12]
 8000fa2:	2301      	movs	r3, #1
 8000fa4:	2a00      	cmp	r2, #0
 8000fa6:	d00f      	beq.n	8000fc8 <HAL_RCC_OscConfig+0x178>
 8000fa8:	682a      	ldr	r2, [r5, #0]
 8000faa:	2702      	movs	r7, #2
 8000fac:	4313      	orrs	r3, r2
 8000fae:	602b      	str	r3, [r5, #0]
 8000fb0:	f7ff fd56 	bl	8000a60 <HAL_GetTick>
 8000fb4:	0006      	movs	r6, r0
 8000fb6:	682b      	ldr	r3, [r5, #0]
 8000fb8:	423b      	tst	r3, r7
 8000fba:	d1e9      	bne.n	8000f90 <HAL_RCC_OscConfig+0x140>
 8000fbc:	f7ff fd50 	bl	8000a60 <HAL_GetTick>
 8000fc0:	1b80      	subs	r0, r0, r6
 8000fc2:	2802      	cmp	r0, #2
 8000fc4:	d9f7      	bls.n	8000fb6 <HAL_RCC_OscConfig+0x166>
 8000fc6:	e7a5      	b.n	8000f14 <HAL_RCC_OscConfig+0xc4>
 8000fc8:	682a      	ldr	r2, [r5, #0]
 8000fca:	2702      	movs	r7, #2
 8000fcc:	439a      	bics	r2, r3
 8000fce:	602a      	str	r2, [r5, #0]
 8000fd0:	f7ff fd46 	bl	8000a60 <HAL_GetTick>
 8000fd4:	0006      	movs	r6, r0
 8000fd6:	682b      	ldr	r3, [r5, #0]
 8000fd8:	423b      	tst	r3, r7
 8000fda:	d100      	bne.n	8000fde <HAL_RCC_OscConfig+0x18e>
 8000fdc:	e744      	b.n	8000e68 <HAL_RCC_OscConfig+0x18>
 8000fde:	f7ff fd3f 	bl	8000a60 <HAL_GetTick>
 8000fe2:	1b80      	subs	r0, r0, r6
 8000fe4:	2802      	cmp	r0, #2
 8000fe6:	d9f6      	bls.n	8000fd6 <HAL_RCC_OscConfig+0x186>
 8000fe8:	e794      	b.n	8000f14 <HAL_RCC_OscConfig+0xc4>
 8000fea:	69e2      	ldr	r2, [r4, #28]
 8000fec:	2301      	movs	r3, #1
 8000fee:	4d59      	ldr	r5, [pc, #356]	@ (8001154 <HAL_RCC_OscConfig+0x304>)
 8000ff0:	2a00      	cmp	r2, #0
 8000ff2:	d010      	beq.n	8001016 <HAL_RCC_OscConfig+0x1c6>
 8000ff4:	6a6a      	ldr	r2, [r5, #36]	@ 0x24
 8000ff6:	2702      	movs	r7, #2
 8000ff8:	4313      	orrs	r3, r2
 8000ffa:	626b      	str	r3, [r5, #36]	@ 0x24
 8000ffc:	f7ff fd30 	bl	8000a60 <HAL_GetTick>
 8001000:	0006      	movs	r6, r0
 8001002:	6a6b      	ldr	r3, [r5, #36]	@ 0x24
 8001004:	423b      	tst	r3, r7
 8001006:	d000      	beq.n	800100a <HAL_RCC_OscConfig+0x1ba>
 8001008:	e732      	b.n	8000e70 <HAL_RCC_OscConfig+0x20>
 800100a:	f7ff fd29 	bl	8000a60 <HAL_GetTick>
 800100e:	1b80      	subs	r0, r0, r6
 8001010:	2802      	cmp	r0, #2
 8001012:	d9f6      	bls.n	8001002 <HAL_RCC_OscConfig+0x1b2>
 8001014:	e77e      	b.n	8000f14 <HAL_RCC_OscConfig+0xc4>
 8001016:	6a6a      	ldr	r2, [r5, #36]	@ 0x24
 8001018:	2702      	movs	r7, #2
 800101a:	439a      	bics	r2, r3
 800101c:	626a      	str	r2, [r5, #36]	@ 0x24
 800101e:	f7ff fd1f 	bl	8000a60 <HAL_GetTick>
 8001022:	0006      	movs	r6, r0
 8001024:	6a6b      	ldr	r3, [r5, #36]	@ 0x24
 8001026:	423b      	tst	r3, r7
 8001028:	d100      	bne.n	800102c <HAL_RCC_OscConfig+0x1dc>
 800102a:	e721      	b.n	8000e70 <HAL_RCC_OscConfig+0x20>
 800102c:	f7ff fd18 	bl	8000a60 <HAL_GetTick>
 8001030:	1b80      	subs	r0, r0, r6
 8001032:	2802      	cmp	r0, #2
 8001034:	d9f6      	bls.n	8001024 <HAL_RCC_OscConfig+0x1d4>
 8001036:	e76d      	b.n	8000f14 <HAL_RCC_OscConfig+0xc4>
 8001038:	2280      	movs	r2, #128	@ 0x80
 800103a:	2100      	movs	r1, #0
 800103c:	4d45      	ldr	r5, [pc, #276]	@ (8001154 <HAL_RCC_OscConfig+0x304>)
 800103e:	0552      	lsls	r2, r2, #21
 8001040:	69eb      	ldr	r3, [r5, #28]
 8001042:	9100      	str	r1, [sp, #0]
 8001044:	4213      	tst	r3, r2
 8001046:	d108      	bne.n	800105a <HAL_RCC_OscConfig+0x20a>
 8001048:	69eb      	ldr	r3, [r5, #28]
 800104a:	4313      	orrs	r3, r2
 800104c:	61eb      	str	r3, [r5, #28]
 800104e:	69eb      	ldr	r3, [r5, #28]
 8001050:	4013      	ands	r3, r2
 8001052:	9303      	str	r3, [sp, #12]
 8001054:	9b03      	ldr	r3, [sp, #12]
 8001056:	2301      	movs	r3, #1
 8001058:	9300      	str	r3, [sp, #0]
 800105a:	2780      	movs	r7, #128	@ 0x80
 800105c:	4e40      	ldr	r6, [pc, #256]	@ (8001160 <HAL_RCC_OscConfig+0x310>)
 800105e:	007f      	lsls	r7, r7, #1
 8001060:	6833      	ldr	r3, [r6, #0]
 8001062:	423b      	tst	r3, r7
 8001064:	d015      	beq.n	8001092 <HAL_RCC_OscConfig+0x242>
 8001066:	68a3      	ldr	r3, [r4, #8]
 8001068:	2b01      	cmp	r3, #1
 800106a:	d122      	bne.n	80010b2 <HAL_RCC_OscConfig+0x262>
 800106c:	6a2a      	ldr	r2, [r5, #32]
 800106e:	4313      	orrs	r3, r2
 8001070:	622b      	str	r3, [r5, #32]
 8001072:	f7ff fcf5 	bl	8000a60 <HAL_GetTick>
 8001076:	2702      	movs	r7, #2
 8001078:	0006      	movs	r6, r0
 800107a:	6a2b      	ldr	r3, [r5, #32]
 800107c:	423b      	tst	r3, r7
 800107e:	d03f      	beq.n	8001100 <HAL_RCC_OscConfig+0x2b0>
 8001080:	9b00      	ldr	r3, [sp, #0]
 8001082:	2b01      	cmp	r3, #1
 8001084:	d000      	beq.n	8001088 <HAL_RCC_OscConfig+0x238>
 8001086:	e6f7      	b.n	8000e78 <HAL_RCC_OscConfig+0x28>
 8001088:	69eb      	ldr	r3, [r5, #28]
 800108a:	4a36      	ldr	r2, [pc, #216]	@ (8001164 <HAL_RCC_OscConfig+0x314>)
 800108c:	4013      	ands	r3, r2
 800108e:	61eb      	str	r3, [r5, #28]
 8001090:	e6f2      	b.n	8000e78 <HAL_RCC_OscConfig+0x28>
 8001092:	6833      	ldr	r3, [r6, #0]
 8001094:	433b      	orrs	r3, r7
 8001096:	6033      	str	r3, [r6, #0]
 8001098:	f7ff fce2 	bl	8000a60 <HAL_GetTick>
 800109c:	9001      	str	r0, [sp, #4]
 800109e:	6833      	ldr	r3, [r6, #0]
 80010a0:	423b      	tst	r3, r7
 80010a2:	d1e0      	bne.n	8001066 <HAL_RCC_OscConfig+0x216>
 80010a4:	f7ff fcdc 	bl	8000a60 <HAL_GetTick>
 80010a8:	9b01      	ldr	r3, [sp, #4]
 80010aa:	1ac0      	subs	r0, r0, r3
 80010ac:	2864      	cmp	r0, #100	@ 0x64
 80010ae:	d9f6      	bls.n	800109e <HAL_RCC_OscConfig+0x24e>
 80010b0:	e730      	b.n	8000f14 <HAL_RCC_OscConfig+0xc4>
 80010b2:	2201      	movs	r2, #1
 80010b4:	2b00      	cmp	r3, #0
 80010b6:	d114      	bne.n	80010e2 <HAL_RCC_OscConfig+0x292>
 80010b8:	6a2b      	ldr	r3, [r5, #32]
 80010ba:	2702      	movs	r7, #2
 80010bc:	4393      	bics	r3, r2
 80010be:	622b      	str	r3, [r5, #32]
 80010c0:	6a2b      	ldr	r3, [r5, #32]
 80010c2:	3203      	adds	r2, #3
 80010c4:	4393      	bics	r3, r2
 80010c6:	622b      	str	r3, [r5, #32]
 80010c8:	f7ff fcca 	bl	8000a60 <HAL_GetTick>
 80010cc:	0006      	movs	r6, r0
 80010ce:	6a2b      	ldr	r3, [r5, #32]
 80010d0:	423b      	tst	r3, r7
 80010d2:	d0d5      	beq.n	8001080 <HAL_RCC_OscConfig+0x230>
 80010d4:	f7ff fcc4 	bl	8000a60 <HAL_GetTick>
 80010d8:	4b23      	ldr	r3, [pc, #140]	@ (8001168 <HAL_RCC_OscConfig+0x318>)
 80010da:	1b80      	subs	r0, r0, r6
 80010dc:	4298      	cmp	r0, r3
 80010de:	d9f6      	bls.n	80010ce <HAL_RCC_OscConfig+0x27e>
 80010e0:	e718      	b.n	8000f14 <HAL_RCC_OscConfig+0xc4>
 80010e2:	2b05      	cmp	r3, #5
 80010e4:	d105      	bne.n	80010f2 <HAL_RCC_OscConfig+0x2a2>
 80010e6:	6a29      	ldr	r1, [r5, #32]
 80010e8:	3b01      	subs	r3, #1
 80010ea:	430b      	orrs	r3, r1
 80010ec:	622b      	str	r3, [r5, #32]
 80010ee:	6a2b      	ldr	r3, [r5, #32]
 80010f0:	e7bd      	b.n	800106e <HAL_RCC_OscConfig+0x21e>
 80010f2:	6a2b      	ldr	r3, [r5, #32]
 80010f4:	4393      	bics	r3, r2
 80010f6:	2204      	movs	r2, #4
 80010f8:	622b      	str	r3, [r5, #32]
 80010fa:	6a2b      	ldr	r3, [r5, #32]
 80010fc:	4393      	bics	r3, r2
 80010fe:	e7b7      	b.n	8001070 <HAL_RCC_OscConfig+0x220>
 8001100:	f7ff fcae 	bl	8000a60 <HAL_GetTick>
 8001104:	4b18      	ldr	r3, [pc, #96]	@ (8001168 <HAL_RCC_OscConfig+0x318>)
 8001106:	1b80      	subs	r0, r0, r6
 8001108:	4298      	cmp	r0, r3
 800110a:	d9b6      	bls.n	800107a <HAL_RCC_OscConfig+0x22a>
 800110c:	e702      	b.n	8000f14 <HAL_RCC_OscConfig+0xc4>
 800110e:	f7ff fca7 	bl	8000a60 <HAL_GetTick>
 8001112:	1b80      	subs	r0, r0, r6
 8001114:	2802      	cmp	r0, #2
 8001116:	d800      	bhi.n	800111a <HAL_RCC_OscConfig+0x2ca>
 8001118:	e6c1      	b.n	8000e9e <HAL_RCC_OscConfig+0x4e>
 800111a:	e6fb      	b.n	8000f14 <HAL_RCC_OscConfig+0xc4>
 800111c:	3205      	adds	r2, #5
 800111e:	d103      	bne.n	8001128 <HAL_RCC_OscConfig+0x2d8>
 8001120:	6b6a      	ldr	r2, [r5, #52]	@ 0x34
 8001122:	439a      	bics	r2, r3
 8001124:	636a      	str	r2, [r5, #52]	@ 0x34
 8001126:	e6be      	b.n	8000ea6 <HAL_RCC_OscConfig+0x56>
 8001128:	6b6a      	ldr	r2, [r5, #52]	@ 0x34
 800112a:	2702      	movs	r7, #2
 800112c:	4313      	orrs	r3, r2
 800112e:	2201      	movs	r2, #1
 8001130:	636b      	str	r3, [r5, #52]	@ 0x34
 8001132:	6b6b      	ldr	r3, [r5, #52]	@ 0x34
 8001134:	4393      	bics	r3, r2
 8001136:	636b      	str	r3, [r5, #52]	@ 0x34
 8001138:	f7ff fc92 	bl	8000a60 <HAL_GetTick>
 800113c:	0006      	movs	r6, r0
 800113e:	6b6b      	ldr	r3, [r5, #52]	@ 0x34
 8001140:	423b      	tst	r3, r7
 8001142:	d100      	bne.n	8001146 <HAL_RCC_OscConfig+0x2f6>
 8001144:	e6b6      	b.n	8000eb4 <HAL_RCC_OscConfig+0x64>
 8001146:	f7ff fc8b 	bl	8000a60 <HAL_GetTick>
 800114a:	1b80      	subs	r0, r0, r6
 800114c:	2802      	cmp	r0, #2
 800114e:	d9f6      	bls.n	800113e <HAL_RCC_OscConfig+0x2ee>
 8001150:	e6e0      	b.n	8000f14 <HAL_RCC_OscConfig+0xc4>
 8001152:	46c0      	nop			@ (mov r8, r8)
 8001154:	40021000 	.word	0x40021000
 8001158:	fffeffff 	.word	0xfffeffff
 800115c:	fffbffff 	.word	0xfffbffff
 8001160:	40007000 	.word	0x40007000
 8001164:	efffffff 	.word	0xefffffff
 8001168:	00001388 	.word	0x00001388
 800116c:	210c      	movs	r1, #12
 800116e:	4d34      	ldr	r5, [pc, #208]	@ (8001240 <HAL_RCC_OscConfig+0x3f0>)
 8001170:	686a      	ldr	r2, [r5, #4]
 8001172:	400a      	ands	r2, r1
 8001174:	2a08      	cmp	r2, #8
 8001176:	d047      	beq.n	8001208 <HAL_RCC_OscConfig+0x3b8>
 8001178:	4a32      	ldr	r2, [pc, #200]	@ (8001244 <HAL_RCC_OscConfig+0x3f4>)
 800117a:	2b02      	cmp	r3, #2
 800117c:	d132      	bne.n	80011e4 <HAL_RCC_OscConfig+0x394>
 800117e:	682b      	ldr	r3, [r5, #0]
 8001180:	2780      	movs	r7, #128	@ 0x80
 8001182:	4013      	ands	r3, r2
 8001184:	602b      	str	r3, [r5, #0]
 8001186:	f7ff fc6b 	bl	8000a60 <HAL_GetTick>
 800118a:	0006      	movs	r6, r0
 800118c:	04bf      	lsls	r7, r7, #18
 800118e:	682b      	ldr	r3, [r5, #0]
 8001190:	423b      	tst	r3, r7
 8001192:	d121      	bne.n	80011d8 <HAL_RCC_OscConfig+0x388>
 8001194:	220f      	movs	r2, #15
 8001196:	6aeb      	ldr	r3, [r5, #44]	@ 0x2c
 8001198:	2680      	movs	r6, #128	@ 0x80
 800119a:	4393      	bics	r3, r2
 800119c:	6ae2      	ldr	r2, [r4, #44]	@ 0x2c
 800119e:	04b6      	lsls	r6, r6, #18
 80011a0:	4313      	orrs	r3, r2
 80011a2:	62eb      	str	r3, [r5, #44]	@ 0x2c
 80011a4:	6a61      	ldr	r1, [r4, #36]	@ 0x24
 80011a6:	6aa3      	ldr	r3, [r4, #40]	@ 0x28
 80011a8:	686a      	ldr	r2, [r5, #4]
 80011aa:	430b      	orrs	r3, r1
 80011ac:	4926      	ldr	r1, [pc, #152]	@ (8001248 <HAL_RCC_OscConfig+0x3f8>)
 80011ae:	400a      	ands	r2, r1
 80011b0:	4313      	orrs	r3, r2
 80011b2:	606b      	str	r3, [r5, #4]
 80011b4:	2380      	movs	r3, #128	@ 0x80
 80011b6:	682a      	ldr	r2, [r5, #0]
 80011b8:	045b      	lsls	r3, r3, #17
 80011ba:	4313      	orrs	r3, r2
 80011bc:	602b      	str	r3, [r5, #0]
 80011be:	f7ff fc4f 	bl	8000a60 <HAL_GetTick>
 80011c2:	0004      	movs	r4, r0
 80011c4:	682b      	ldr	r3, [r5, #0]
 80011c6:	4233      	tst	r3, r6
 80011c8:	d000      	beq.n	80011cc <HAL_RCC_OscConfig+0x37c>
 80011ca:	e677      	b.n	8000ebc <HAL_RCC_OscConfig+0x6c>
 80011cc:	f7ff fc48 	bl	8000a60 <HAL_GetTick>
 80011d0:	1b00      	subs	r0, r0, r4
 80011d2:	2802      	cmp	r0, #2
 80011d4:	d9f6      	bls.n	80011c4 <HAL_RCC_OscConfig+0x374>
 80011d6:	e69d      	b.n	8000f14 <HAL_RCC_OscConfig+0xc4>
 80011d8:	f7ff fc42 	bl	8000a60 <HAL_GetTick>
 80011dc:	1b80      	subs	r0, r0, r6
 80011de:	2802      	cmp	r0, #2
 80011e0:	d9d5      	bls.n	800118e <HAL_RCC_OscConfig+0x33e>
 80011e2:	e697      	b.n	8000f14 <HAL_RCC_OscConfig+0xc4>
 80011e4:	682b      	ldr	r3, [r5, #0]
 80011e6:	2680      	movs	r6, #128	@ 0x80
 80011e8:	4013      	ands	r3, r2
 80011ea:	602b      	str	r3, [r5, #0]
 80011ec:	f7ff fc38 	bl	8000a60 <HAL_GetTick>
 80011f0:	0004      	movs	r4, r0
 80011f2:	04b6      	lsls	r6, r6, #18
 80011f4:	682b      	ldr	r3, [r5, #0]
 80011f6:	4233      	tst	r3, r6
 80011f8:	d100      	bne.n	80011fc <HAL_RCC_OscConfig+0x3ac>
 80011fa:	e65f      	b.n	8000ebc <HAL_RCC_OscConfig+0x6c>
 80011fc:	f7ff fc30 	bl	8000a60 <HAL_GetTick>
 8001200:	1b00      	subs	r0, r0, r4
 8001202:	2802      	cmp	r0, #2
 8001204:	d9f6      	bls.n	80011f4 <HAL_RCC_OscConfig+0x3a4>
 8001206:	e685      	b.n	8000f14 <HAL_RCC_OscConfig+0xc4>
 8001208:	2b01      	cmp	r3, #1
 800120a:	d100      	bne.n	800120e <HAL_RCC_OscConfig+0x3be>
 800120c:	e66b      	b.n	8000ee6 <HAL_RCC_OscConfig+0x96>
 800120e:	2280      	movs	r2, #128	@ 0x80
 8001210:	6868      	ldr	r0, [r5, #4]
 8001212:	6a61      	ldr	r1, [r4, #36]	@ 0x24
 8001214:	0252      	lsls	r2, r2, #9
 8001216:	6aeb      	ldr	r3, [r5, #44]	@ 0x2c
 8001218:	4002      	ands	r2, r0
 800121a:	428a      	cmp	r2, r1
 800121c:	d000      	beq.n	8001220 <HAL_RCC_OscConfig+0x3d0>
 800121e:	e662      	b.n	8000ee6 <HAL_RCC_OscConfig+0x96>
 8001220:	220f      	movs	r2, #15
 8001222:	4013      	ands	r3, r2
 8001224:	6ae2      	ldr	r2, [r4, #44]	@ 0x2c
 8001226:	4293      	cmp	r3, r2
 8001228:	d000      	beq.n	800122c <HAL_RCC_OscConfig+0x3dc>
 800122a:	e65c      	b.n	8000ee6 <HAL_RCC_OscConfig+0x96>
 800122c:	23f0      	movs	r3, #240	@ 0xf0
 800122e:	039b      	lsls	r3, r3, #14
 8001230:	4018      	ands	r0, r3
 8001232:	6aa3      	ldr	r3, [r4, #40]	@ 0x28
 8001234:	1ac0      	subs	r0, r0, r3
 8001236:	1e43      	subs	r3, r0, #1
 8001238:	4198      	sbcs	r0, r3
 800123a:	b2c0      	uxtb	r0, r0
 800123c:	e66b      	b.n	8000f16 <HAL_RCC_OscConfig+0xc6>
 800123e:	46c0      	nop			@ (mov r8, r8)
 8001240:	40021000 	.word	0x40021000
 8001244:	feffffff 	.word	0xfeffffff
 8001248:	ffc2ffff 	.word	0xffc2ffff

0800124c <HAL_RCC_GetSysClockFreq>:
 800124c:	220c      	movs	r2, #12
 800124e:	b570      	push	{r4, r5, r6, lr}
 8001250:	4d0c      	ldr	r5, [pc, #48]	@ (8001284 <HAL_RCC_GetSysClockFreq+0x38>)
 8001252:	686b      	ldr	r3, [r5, #4]
 8001254:	401a      	ands	r2, r3
 8001256:	2a08      	cmp	r2, #8
 8001258:	d111      	bne.n	800127e <HAL_RCC_GetSysClockFreq+0x32>
 800125a:	200f      	movs	r0, #15
 800125c:	490a      	ldr	r1, [pc, #40]	@ (8001288 <HAL_RCC_GetSysClockFreq+0x3c>)
 800125e:	0c9a      	lsrs	r2, r3, #18
 8001260:	4002      	ands	r2, r0
 8001262:	5c8c      	ldrb	r4, [r1, r2]
 8001264:	6aea      	ldr	r2, [r5, #44]	@ 0x2c
 8001266:	03db      	lsls	r3, r3, #15
 8001268:	d507      	bpl.n	800127a <HAL_RCC_GetSysClockFreq+0x2e>
 800126a:	4908      	ldr	r1, [pc, #32]	@ (800128c <HAL_RCC_GetSysClockFreq+0x40>)
 800126c:	4002      	ands	r2, r0
 800126e:	5c89      	ldrb	r1, [r1, r2]
 8001270:	4807      	ldr	r0, [pc, #28]	@ (8001290 <HAL_RCC_GetSysClockFreq+0x44>)
 8001272:	f7fe ff53 	bl	800011c <__udivsi3>
 8001276:	4360      	muls	r0, r4
 8001278:	bd70      	pop	{r4, r5, r6, pc}
 800127a:	4806      	ldr	r0, [pc, #24]	@ (8001294 <HAL_RCC_GetSysClockFreq+0x48>)
 800127c:	e7fb      	b.n	8001276 <HAL_RCC_GetSysClockFreq+0x2a>
 800127e:	4804      	ldr	r0, [pc, #16]	@ (8001290 <HAL_RCC_GetSysClockFreq+0x44>)
 8001280:	e7fa      	b.n	8001278 <HAL_RCC_GetSysClockFreq+0x2c>
 8001282:	46c0      	nop			@ (mov r8, r8)
 8001284:	40021000 	.word	0x40021000
 8001288:	08001e7c 	.word	0x08001e7c
 800128c:	08001e6c 	.word	0x08001e6c
 8001290:	007a1200 	.word	0x007a1200
 8001294:	003d0900 	.word	0x003d0900

08001298 <HAL_RCC_ClockConfig>:
 8001298:	b5f7      	push	{r0, r1, r2, r4, r5, r6, r7, lr}
 800129a:	0004      	movs	r4, r0
 800129c:	000e      	movs	r6, r1
 800129e:	2800      	cmp	r0, #0
 80012a0:	d101      	bne.n	80012a6 <HAL_RCC_ClockConfig+0xe>
 80012a2:	2001      	movs	r0, #1
 80012a4:	bdfe      	pop	{r1, r2, r3, r4, r5, r6, r7, pc}
 80012a6:	2201      	movs	r2, #1
 80012a8:	4d37      	ldr	r5, [pc, #220]	@ (8001388 <HAL_RCC_ClockConfig+0xf0>)
 80012aa:	682b      	ldr	r3, [r5, #0]
 80012ac:	4013      	ands	r3, r2
 80012ae:	428b      	cmp	r3, r1
 80012b0:	d31c      	bcc.n	80012ec <HAL_RCC_ClockConfig+0x54>
 80012b2:	6822      	ldr	r2, [r4, #0]
 80012b4:	0793      	lsls	r3, r2, #30
 80012b6:	d422      	bmi.n	80012fe <HAL_RCC_ClockConfig+0x66>
 80012b8:	07d2      	lsls	r2, r2, #31
 80012ba:	d42f      	bmi.n	800131c <HAL_RCC_ClockConfig+0x84>
 80012bc:	2301      	movs	r3, #1
 80012be:	682a      	ldr	r2, [r5, #0]
 80012c0:	401a      	ands	r2, r3
 80012c2:	42b2      	cmp	r2, r6
 80012c4:	d851      	bhi.n	800136a <HAL_RCC_ClockConfig+0xd2>
 80012c6:	6823      	ldr	r3, [r4, #0]
 80012c8:	4d30      	ldr	r5, [pc, #192]	@ (800138c <HAL_RCC_ClockConfig+0xf4>)
 80012ca:	075b      	lsls	r3, r3, #29
 80012cc:	d454      	bmi.n	8001378 <HAL_RCC_ClockConfig+0xe0>
 80012ce:	f7ff ffbd 	bl	800124c <HAL_RCC_GetSysClockFreq>
 80012d2:	686b      	ldr	r3, [r5, #4]
 80012d4:	4a2e      	ldr	r2, [pc, #184]	@ (8001390 <HAL_RCC_ClockConfig+0xf8>)
 80012d6:	061b      	lsls	r3, r3, #24
 80012d8:	0f1b      	lsrs	r3, r3, #28
 80012da:	5cd3      	ldrb	r3, [r2, r3]
 80012dc:	492d      	ldr	r1, [pc, #180]	@ (8001394 <HAL_RCC_ClockConfig+0xfc>)
 80012de:	40d8      	lsrs	r0, r3
 80012e0:	6008      	str	r0, [r1, #0]
 80012e2:	2003      	movs	r0, #3
 80012e4:	f7ff fb7c 	bl	80009e0 <HAL_InitTick>
 80012e8:	2000      	movs	r0, #0
 80012ea:	e7db      	b.n	80012a4 <HAL_RCC_ClockConfig+0xc>
 80012ec:	682b      	ldr	r3, [r5, #0]
 80012ee:	4393      	bics	r3, r2
 80012f0:	430b      	orrs	r3, r1
 80012f2:	602b      	str	r3, [r5, #0]
 80012f4:	682b      	ldr	r3, [r5, #0]
 80012f6:	4013      	ands	r3, r2
 80012f8:	428b      	cmp	r3, r1
 80012fa:	d1d2      	bne.n	80012a2 <HAL_RCC_ClockConfig+0xa>
 80012fc:	e7d9      	b.n	80012b2 <HAL_RCC_ClockConfig+0x1a>
 80012fe:	4923      	ldr	r1, [pc, #140]	@ (800138c <HAL_RCC_ClockConfig+0xf4>)
 8001300:	0753      	lsls	r3, r2, #29
 8001302:	d504      	bpl.n	800130e <HAL_RCC_ClockConfig+0x76>
 8001304:	23e0      	movs	r3, #224	@ 0xe0
 8001306:	6848      	ldr	r0, [r1, #4]
 8001308:	00db      	lsls	r3, r3, #3
 800130a:	4303      	orrs	r3, r0
 800130c:	604b      	str	r3, [r1, #4]
 800130e:	20f0      	movs	r0, #240	@ 0xf0
 8001310:	684b      	ldr	r3, [r1, #4]
 8001312:	4383      	bics	r3, r0
 8001314:	68a0      	ldr	r0, [r4, #8]
 8001316:	4303      	orrs	r3, r0
 8001318:	604b      	str	r3, [r1, #4]
 800131a:	e7cd      	b.n	80012b8 <HAL_RCC_ClockConfig+0x20>
 800131c:	4f1b      	ldr	r7, [pc, #108]	@ (800138c <HAL_RCC_ClockConfig+0xf4>)
 800131e:	6862      	ldr	r2, [r4, #4]
 8001320:	683b      	ldr	r3, [r7, #0]
 8001322:	2a01      	cmp	r2, #1
 8001324:	d119      	bne.n	800135a <HAL_RCC_ClockConfig+0xc2>
 8001326:	039b      	lsls	r3, r3, #14
 8001328:	d5bb      	bpl.n	80012a2 <HAL_RCC_ClockConfig+0xa>
 800132a:	2103      	movs	r1, #3
 800132c:	687b      	ldr	r3, [r7, #4]
 800132e:	438b      	bics	r3, r1
 8001330:	4313      	orrs	r3, r2
 8001332:	607b      	str	r3, [r7, #4]
 8001334:	f7ff fb94 	bl	8000a60 <HAL_GetTick>
 8001338:	9001      	str	r0, [sp, #4]
 800133a:	230c      	movs	r3, #12
 800133c:	687a      	ldr	r2, [r7, #4]
 800133e:	401a      	ands	r2, r3
 8001340:	6863      	ldr	r3, [r4, #4]
 8001342:	009b      	lsls	r3, r3, #2
 8001344:	429a      	cmp	r2, r3
 8001346:	d0b9      	beq.n	80012bc <HAL_RCC_ClockConfig+0x24>
 8001348:	f7ff fb8a 	bl	8000a60 <HAL_GetTick>
 800134c:	9b01      	ldr	r3, [sp, #4]
 800134e:	1ac0      	subs	r0, r0, r3
 8001350:	4b11      	ldr	r3, [pc, #68]	@ (8001398 <HAL_RCC_ClockConfig+0x100>)
 8001352:	4298      	cmp	r0, r3
 8001354:	d9f1      	bls.n	800133a <HAL_RCC_ClockConfig+0xa2>
 8001356:	2003      	movs	r0, #3
 8001358:	e7a4      	b.n	80012a4 <HAL_RCC_ClockConfig+0xc>
 800135a:	2a02      	cmp	r2, #2
 800135c:	d102      	bne.n	8001364 <HAL_RCC_ClockConfig+0xcc>
 800135e:	019b      	lsls	r3, r3, #6
 8001360:	d4e3      	bmi.n	800132a <HAL_RCC_ClockConfig+0x92>
 8001362:	e79e      	b.n	80012a2 <HAL_RCC_ClockConfig+0xa>
 8001364:	079b      	lsls	r3, r3, #30
 8001366:	d4e0      	bmi.n	800132a <HAL_RCC_ClockConfig+0x92>
 8001368:	e79b      	b.n	80012a2 <HAL_RCC_ClockConfig+0xa>
 800136a:	682a      	ldr	r2, [r5, #0]
 800136c:	439a      	bics	r2, r3
 800136e:	602a      	str	r2, [r5, #0]
 8001370:	682a      	ldr	r2, [r5, #0]
 8001372:	421a      	tst	r2, r3
 8001374:	d0a7      	beq.n	80012c6 <HAL_RCC_ClockConfig+0x2e>
 8001376:	e794      	b.n	80012a2 <HAL_RCC_ClockConfig+0xa>
 8001378:	686b      	ldr	r3, [r5, #4]
 800137a:	4a08      	ldr	r2, [pc, #32]	@ (800139c <HAL_RCC_ClockConfig+0x104>)
 800137c:	4013      	ands	r3, r2
 800137e:	68e2      	ldr	r2, [r4, #12]
 8001380:	4313      	orrs	r3, r2
 8001382:	606b      	str	r3, [r5, #4]
 8001384:	e7a3      	b.n	80012ce <HAL_RCC_ClockConfig+0x36>
 8001386:	46c0      	nop			@ (mov r8, r8)
 8001388:	40022000 	.word	0x40022000
 800138c:	40021000 	.word	0x40021000
 8001390:	08001e5c 	.word	0x08001e5c
 8001394:	20000000 	.word	0x20000000
 8001398:	00001388 	.word	0x00001388
 800139c:	fffff8ff 	.word	0xfffff8ff

080013a0 <TIM_OC1_SetConfig>:
 80013a0:	b570      	push	{r4, r5, r6, lr}
 80013a2:	2401      	movs	r4, #1
 80013a4:	6a03      	ldr	r3, [r0, #32]
 80013a6:	6a02      	ldr	r2, [r0, #32]
 80013a8:	43a2      	bics	r2, r4
 80013aa:	6202      	str	r2, [r0, #32]
 80013ac:	2273      	movs	r2, #115	@ 0x73
 80013ae:	6844      	ldr	r4, [r0, #4]
 80013b0:	6985      	ldr	r5, [r0, #24]
 80013b2:	4395      	bics	r5, r2
 80013b4:	680a      	ldr	r2, [r1, #0]
 80013b6:	4315      	orrs	r5, r2
 80013b8:	2202      	movs	r2, #2
 80013ba:	4393      	bics	r3, r2
 80013bc:	688a      	ldr	r2, [r1, #8]
 80013be:	4313      	orrs	r3, r2
 80013c0:	4a11      	ldr	r2, [pc, #68]	@ (8001408 <TIM_OC1_SetConfig+0x68>)
 80013c2:	4290      	cmp	r0, r2
 80013c4:	d005      	beq.n	80013d2 <TIM_OC1_SetConfig+0x32>
 80013c6:	4e11      	ldr	r6, [pc, #68]	@ (800140c <TIM_OC1_SetConfig+0x6c>)
 80013c8:	42b0      	cmp	r0, r6
 80013ca:	d002      	beq.n	80013d2 <TIM_OC1_SetConfig+0x32>
 80013cc:	4e10      	ldr	r6, [pc, #64]	@ (8001410 <TIM_OC1_SetConfig+0x70>)
 80013ce:	42b0      	cmp	r0, r6
 80013d0:	d113      	bne.n	80013fa <TIM_OC1_SetConfig+0x5a>
 80013d2:	2608      	movs	r6, #8
 80013d4:	43b3      	bics	r3, r6
 80013d6:	68ce      	ldr	r6, [r1, #12]
 80013d8:	4333      	orrs	r3, r6
 80013da:	2604      	movs	r6, #4
 80013dc:	43b3      	bics	r3, r6
 80013de:	4290      	cmp	r0, r2
 80013e0:	d005      	beq.n	80013ee <TIM_OC1_SetConfig+0x4e>
 80013e2:	4a0a      	ldr	r2, [pc, #40]	@ (800140c <TIM_OC1_SetConfig+0x6c>)
 80013e4:	4290      	cmp	r0, r2
 80013e6:	d002      	beq.n	80013ee <TIM_OC1_SetConfig+0x4e>
 80013e8:	4a09      	ldr	r2, [pc, #36]	@ (8001410 <TIM_OC1_SetConfig+0x70>)
 80013ea:	4290      	cmp	r0, r2
 80013ec:	d105      	bne.n	80013fa <TIM_OC1_SetConfig+0x5a>
 80013ee:	4a09      	ldr	r2, [pc, #36]	@ (8001414 <TIM_OC1_SetConfig+0x74>)
 80013f0:	698e      	ldr	r6, [r1, #24]
 80013f2:	4022      	ands	r2, r4
 80013f4:	694c      	ldr	r4, [r1, #20]
 80013f6:	4334      	orrs	r4, r6
 80013f8:	4314      	orrs	r4, r2
 80013fa:	684a      	ldr	r2, [r1, #4]
 80013fc:	6044      	str	r4, [r0, #4]
 80013fe:	6185      	str	r5, [r0, #24]
 8001400:	6342      	str	r2, [r0, #52]	@ 0x34
 8001402:	6203      	str	r3, [r0, #32]
 8001404:	bd70      	pop	{r4, r5, r6, pc}
 8001406:	46c0      	nop			@ (mov r8, r8)
 8001408:	40012c00 	.word	0x40012c00
 800140c:	40014400 	.word	0x40014400
 8001410:	40014800 	.word	0x40014800
 8001414:	fffffcff 	.word	0xfffffcff

08001418 <TIM_OC3_SetConfig>:
 8001418:	b570      	push	{r4, r5, r6, lr}
 800141a:	4a17      	ldr	r2, [pc, #92]	@ (8001478 <TIM_OC3_SetConfig+0x60>)
 800141c:	6a05      	ldr	r5, [r0, #32]
 800141e:	6a03      	ldr	r3, [r0, #32]
 8001420:	4013      	ands	r3, r2
 8001422:	6203      	str	r3, [r0, #32]
 8001424:	2373      	movs	r3, #115	@ 0x73
 8001426:	6842      	ldr	r2, [r0, #4]
 8001428:	69c4      	ldr	r4, [r0, #28]
 800142a:	439c      	bics	r4, r3
 800142c:	680b      	ldr	r3, [r1, #0]
 800142e:	431c      	orrs	r4, r3
 8001430:	4b12      	ldr	r3, [pc, #72]	@ (800147c <TIM_OC3_SetConfig+0x64>)
 8001432:	401d      	ands	r5, r3
 8001434:	688b      	ldr	r3, [r1, #8]
 8001436:	021b      	lsls	r3, r3, #8
 8001438:	432b      	orrs	r3, r5
 800143a:	4d11      	ldr	r5, [pc, #68]	@ (8001480 <TIM_OC3_SetConfig+0x68>)
 800143c:	42a8      	cmp	r0, r5
 800143e:	d10e      	bne.n	800145e <TIM_OC3_SetConfig+0x46>
 8001440:	4d10      	ldr	r5, [pc, #64]	@ (8001484 <TIM_OC3_SetConfig+0x6c>)
 8001442:	401d      	ands	r5, r3
 8001444:	68cb      	ldr	r3, [r1, #12]
 8001446:	021b      	lsls	r3, r3, #8
 8001448:	432b      	orrs	r3, r5
 800144a:	4d0f      	ldr	r5, [pc, #60]	@ (8001488 <TIM_OC3_SetConfig+0x70>)
 800144c:	402b      	ands	r3, r5
 800144e:	4d0f      	ldr	r5, [pc, #60]	@ (800148c <TIM_OC3_SetConfig+0x74>)
 8001450:	694e      	ldr	r6, [r1, #20]
 8001452:	4015      	ands	r5, r2
 8001454:	698a      	ldr	r2, [r1, #24]
 8001456:	4332      	orrs	r2, r6
 8001458:	0112      	lsls	r2, r2, #4
 800145a:	432a      	orrs	r2, r5
 800145c:	e005      	b.n	800146a <TIM_OC3_SetConfig+0x52>
 800145e:	4d0c      	ldr	r5, [pc, #48]	@ (8001490 <TIM_OC3_SetConfig+0x78>)
 8001460:	42a8      	cmp	r0, r5
 8001462:	d0f4      	beq.n	800144e <TIM_OC3_SetConfig+0x36>
 8001464:	4d0b      	ldr	r5, [pc, #44]	@ (8001494 <TIM_OC3_SetConfig+0x7c>)
 8001466:	42a8      	cmp	r0, r5
 8001468:	d0f1      	beq.n	800144e <TIM_OC3_SetConfig+0x36>
 800146a:	6042      	str	r2, [r0, #4]
 800146c:	684a      	ldr	r2, [r1, #4]
 800146e:	61c4      	str	r4, [r0, #28]
 8001470:	63c2      	str	r2, [r0, #60]	@ 0x3c
 8001472:	6203      	str	r3, [r0, #32]
 8001474:	bd70      	pop	{r4, r5, r6, pc}
 8001476:	46c0      	nop			@ (mov r8, r8)
 8001478:	fffffeff 	.word	0xfffffeff
 800147c:	fffffdff 	.word	0xfffffdff
 8001480:	40012c00 	.word	0x40012c00
 8001484:	fffff7ff 	.word	0xfffff7ff
 8001488:	fffffbff 	.word	0xfffffbff
 800148c:	ffffcfff 	.word	0xffffcfff
 8001490:	40014400 	.word	0x40014400
 8001494:	40014800 	.word	0x40014800

08001498 <TIM_OC4_SetConfig>:
 8001498:	b530      	push	{r4, r5, lr}
 800149a:	4a12      	ldr	r2, [pc, #72]	@ (80014e4 <TIM_OC4_SetConfig+0x4c>)
 800149c:	6a04      	ldr	r4, [r0, #32]
 800149e:	6a03      	ldr	r3, [r0, #32]
 80014a0:	4d11      	ldr	r5, [pc, #68]	@ (80014e8 <TIM_OC4_SetConfig+0x50>)
 80014a2:	4013      	ands	r3, r2
 80014a4:	6203      	str	r3, [r0, #32]
 80014a6:	6843      	ldr	r3, [r0, #4]
 80014a8:	69c2      	ldr	r2, [r0, #28]
 80014aa:	402a      	ands	r2, r5
 80014ac:	680d      	ldr	r5, [r1, #0]
 80014ae:	022d      	lsls	r5, r5, #8
 80014b0:	4315      	orrs	r5, r2
 80014b2:	4a0e      	ldr	r2, [pc, #56]	@ (80014ec <TIM_OC4_SetConfig+0x54>)
 80014b4:	4014      	ands	r4, r2
 80014b6:	688a      	ldr	r2, [r1, #8]
 80014b8:	0312      	lsls	r2, r2, #12
 80014ba:	4322      	orrs	r2, r4
 80014bc:	4c0c      	ldr	r4, [pc, #48]	@ (80014f0 <TIM_OC4_SetConfig+0x58>)
 80014be:	42a0      	cmp	r0, r4
 80014c0:	d005      	beq.n	80014ce <TIM_OC4_SetConfig+0x36>
 80014c2:	4c0c      	ldr	r4, [pc, #48]	@ (80014f4 <TIM_OC4_SetConfig+0x5c>)
 80014c4:	42a0      	cmp	r0, r4
 80014c6:	d002      	beq.n	80014ce <TIM_OC4_SetConfig+0x36>
 80014c8:	4c0b      	ldr	r4, [pc, #44]	@ (80014f8 <TIM_OC4_SetConfig+0x60>)
 80014ca:	42a0      	cmp	r0, r4
 80014cc:	d104      	bne.n	80014d8 <TIM_OC4_SetConfig+0x40>
 80014ce:	4c0b      	ldr	r4, [pc, #44]	@ (80014fc <TIM_OC4_SetConfig+0x64>)
 80014d0:	401c      	ands	r4, r3
 80014d2:	694b      	ldr	r3, [r1, #20]
 80014d4:	019b      	lsls	r3, r3, #6
 80014d6:	4323      	orrs	r3, r4
 80014d8:	6043      	str	r3, [r0, #4]
 80014da:	684b      	ldr	r3, [r1, #4]
 80014dc:	61c5      	str	r5, [r0, #28]
 80014de:	6403      	str	r3, [r0, #64]	@ 0x40
 80014e0:	6202      	str	r2, [r0, #32]
 80014e2:	bd30      	pop	{r4, r5, pc}
 80014e4:	ffffefff 	.word	0xffffefff
 80014e8:	ffff8cff 	.word	0xffff8cff
 80014ec:	ffffdfff 	.word	0xffffdfff
 80014f0:	40012c00 	.word	0x40012c00
 80014f4:	40014400 	.word	0x40014400
 80014f8:	40014800 	.word	0x40014800
 80014fc:	ffffbfff 	.word	0xffffbfff

08001500 <HAL_TIM_PWM_MspInit>:
 8001500:	4770      	bx	lr

08001502 <HAL_TIM_PeriodElapsedCallback>:
 8001502:	4770      	bx	lr

08001504 <HAL_TIM_OC_DelayElapsedCallback>:
 8001504:	4770      	bx	lr

08001506 <HAL_TIM_IC_CaptureCallback>:
 8001506:	4770      	bx	lr

08001508 <TIM_DMADelayPulseCplt>:
 8001508:	b510      	push	{r4, lr}
 800150a:	6a44      	ldr	r4, [r0, #36]	@ 0x24
 800150c:	6a62      	ldr	r2, [r4, #36]	@ 0x24
 800150e:	4282      	cmp	r2, r0
 8001510:	d10d      	bne.n	800152e <TIM_DMADelayPulseCplt+0x26>
 8001512:	2301      	movs	r3, #1
 8001514:	7723      	strb	r3, [r4, #28]
 8001516:	6992      	ldr	r2, [r2, #24]
 8001518:	2a00      	cmp	r2, #0
 800151a:	d102      	bne.n	8001522 <TIM_DMADelayPulseCplt+0x1a>
 800151c:	0022      	movs	r2, r4
 800151e:	323e      	adds	r2, #62	@ 0x3e
 8001520:	7013      	strb	r3, [r2, #0]
 8001522:	0020      	movs	r0, r4
 8001524:	f7ff f864 	bl	80005f0 <HAL_TIM_PWM_PulseFinishedCallback>
 8001528:	2300      	movs	r3, #0
 800152a:	7723      	strb	r3, [r4, #28]
 800152c:	bd10      	pop	{r4, pc}
 800152e:	6aa3      	ldr	r3, [r4, #40]	@ 0x28
 8001530:	4283      	cmp	r3, r0
 8001532:	d109      	bne.n	8001548 <TIM_DMADelayPulseCplt+0x40>
 8001534:	2202      	movs	r2, #2
 8001536:	7722      	strb	r2, [r4, #28]
 8001538:	699b      	ldr	r3, [r3, #24]
 800153a:	2b00      	cmp	r3, #0
 800153c:	d1f1      	bne.n	8001522 <TIM_DMADelayPulseCplt+0x1a>
 800153e:	0023      	movs	r3, r4
 8001540:	3a01      	subs	r2, #1
 8001542:	333f      	adds	r3, #63	@ 0x3f
 8001544:	701a      	strb	r2, [r3, #0]
 8001546:	e7ec      	b.n	8001522 <TIM_DMADelayPulseCplt+0x1a>
 8001548:	6ae3      	ldr	r3, [r4, #44]	@ 0x2c
 800154a:	4283      	cmp	r3, r0
 800154c:	d108      	bne.n	8001560 <TIM_DMADelayPulseCplt+0x58>
 800154e:	2204      	movs	r2, #4
 8001550:	7722      	strb	r2, [r4, #28]
 8001552:	699b      	ldr	r3, [r3, #24]
 8001554:	2b00      	cmp	r3, #0
 8001556:	d1e4      	bne.n	8001522 <TIM_DMADelayPulseCplt+0x1a>
 8001558:	0023      	movs	r3, r4
 800155a:	3a03      	subs	r2, #3
 800155c:	3340      	adds	r3, #64	@ 0x40
 800155e:	e7f1      	b.n	8001544 <TIM_DMADelayPulseCplt+0x3c>
 8001560:	6b23      	ldr	r3, [r4, #48]	@ 0x30
 8001562:	4283      	cmp	r3, r0
 8001564:	d1dd      	bne.n	8001522 <TIM_DMADelayPulseCplt+0x1a>
 8001566:	2208      	movs	r2, #8
 8001568:	7722      	strb	r2, [r4, #28]
 800156a:	699b      	ldr	r3, [r3, #24]
 800156c:	2b00      	cmp	r3, #0
 800156e:	d1d8      	bne.n	8001522 <TIM_DMADelayPulseCplt+0x1a>
 8001570:	0023      	movs	r3, r4
 8001572:	3a07      	subs	r2, #7
 8001574:	3341      	adds	r3, #65	@ 0x41
 8001576:	e7e5      	b.n	8001544 <TIM_DMADelayPulseCplt+0x3c>

08001578 <HAL_TIM_PWM_PulseFinishedHalfCpltCallback>:
 8001578:	4770      	bx	lr

0800157a <TIM_DMADelayPulseHalfCplt>:
 800157a:	b510      	push	{r4, lr}
 800157c:	6a44      	ldr	r4, [r0, #36]	@ 0x24
 800157e:	6a63      	ldr	r3, [r4, #36]	@ 0x24
 8001580:	4283      	cmp	r3, r0
 8001582:	d107      	bne.n	8001594 <TIM_DMADelayPulseHalfCplt+0x1a>
 8001584:	2301      	movs	r3, #1
 8001586:	7723      	strb	r3, [r4, #28]
 8001588:	0020      	movs	r0, r4
 800158a:	f7ff fff5 	bl	8001578 <HAL_TIM_PWM_PulseFinishedHalfCpltCallback>
 800158e:	2300      	movs	r3, #0
 8001590:	7723      	strb	r3, [r4, #28]
 8001592:	bd10      	pop	{r4, pc}
 8001594:	6aa3      	ldr	r3, [r4, #40]	@ 0x28
 8001596:	4283      	cmp	r3, r0
 8001598:	d101      	bne.n	800159e <TIM_DMADelayPulseHalfCplt+0x24>
 800159a:	2302      	movs	r3, #2
 800159c:	e7f3      	b.n	8001586 <TIM_DMADelayPulseHalfCplt+0xc>
 800159e:	6ae3      	ldr	r3, [r4, #44]	@ 0x2c
 80015a0:	4283      	cmp	r3, r0
 80015a2:	d101      	bne.n	80015a8 <TIM_DMADelayPulseHalfCplt+0x2e>
 80015a4:	2304      	movs	r3, #4
 80015a6:	e7ee      	b.n	8001586 <TIM_DMADelayPulseHalfCplt+0xc>
 80015a8:	6b23      	ldr	r3, [r4, #48]	@ 0x30
 80015aa:	4283      	cmp	r3, r0
 80015ac:	d1ec      	bne.n	8001588 <TIM_DMADelayPulseHalfCplt+0xe>
 80015ae:	2308      	movs	r3, #8
 80015b0:	e7e9      	b.n	8001586 <TIM_DMADelayPulseHalfCplt+0xc>

080015b2 <HAL_TIM_TriggerCallback>:
 80015b2:	4770      	bx	lr

080015b4 <HAL_TIM_IRQHandler>:
 80015b4:	2202      	movs	r2, #2
 80015b6:	6803      	ldr	r3, [r0, #0]
 80015b8:	b570      	push	{r4, r5, r6, lr}
 80015ba:	68dd      	ldr	r5, [r3, #12]
 80015bc:	691e      	ldr	r6, [r3, #16]
 80015be:	0004      	movs	r4, r0
 80015c0:	4216      	tst	r6, r2
 80015c2:	d00d      	beq.n	80015e0 <HAL_TIM_IRQHandler+0x2c>
 80015c4:	4215      	tst	r5, r2
 80015c6:	d00b      	beq.n	80015e0 <HAL_TIM_IRQHandler+0x2c>
 80015c8:	3a05      	subs	r2, #5
 80015ca:	611a      	str	r2, [r3, #16]
 80015cc:	3204      	adds	r2, #4
 80015ce:	7702      	strb	r2, [r0, #28]
 80015d0:	699b      	ldr	r3, [r3, #24]
 80015d2:	079b      	lsls	r3, r3, #30
 80015d4:	d100      	bne.n	80015d8 <HAL_TIM_IRQHandler+0x24>
 80015d6:	e071      	b.n	80016bc <HAL_TIM_IRQHandler+0x108>
 80015d8:	f7ff ff95 	bl	8001506 <HAL_TIM_IC_CaptureCallback>
 80015dc:	2300      	movs	r3, #0
 80015de:	7723      	strb	r3, [r4, #28]
 80015e0:	2304      	movs	r3, #4
 80015e2:	421e      	tst	r6, r3
 80015e4:	d011      	beq.n	800160a <HAL_TIM_IRQHandler+0x56>
 80015e6:	421d      	tst	r5, r3
 80015e8:	d00f      	beq.n	800160a <HAL_TIM_IRQHandler+0x56>
 80015ea:	2205      	movs	r2, #5
 80015ec:	6823      	ldr	r3, [r4, #0]
 80015ee:	4252      	negs	r2, r2
 80015f0:	611a      	str	r2, [r3, #16]
 80015f2:	3207      	adds	r2, #7
 80015f4:	7722      	strb	r2, [r4, #28]
 80015f6:	699a      	ldr	r2, [r3, #24]
 80015f8:	23c0      	movs	r3, #192	@ 0xc0
 80015fa:	009b      	lsls	r3, r3, #2
 80015fc:	0020      	movs	r0, r4
 80015fe:	421a      	tst	r2, r3
 8001600:	d062      	beq.n	80016c8 <HAL_TIM_IRQHandler+0x114>
 8001602:	f7ff ff80 	bl	8001506 <HAL_TIM_IC_CaptureCallback>
 8001606:	2300      	movs	r3, #0
 8001608:	7723      	strb	r3, [r4, #28]
 800160a:	2308      	movs	r3, #8
 800160c:	421e      	tst	r6, r3
 800160e:	d00f      	beq.n	8001630 <HAL_TIM_IRQHandler+0x7c>
 8001610:	421d      	tst	r5, r3
 8001612:	d00d      	beq.n	8001630 <HAL_TIM_IRQHandler+0x7c>
 8001614:	2209      	movs	r2, #9
 8001616:	6823      	ldr	r3, [r4, #0]
 8001618:	4252      	negs	r2, r2
 800161a:	611a      	str	r2, [r3, #16]
 800161c:	320d      	adds	r2, #13
 800161e:	7722      	strb	r2, [r4, #28]
 8001620:	69db      	ldr	r3, [r3, #28]
 8001622:	0020      	movs	r0, r4
 8001624:	079b      	lsls	r3, r3, #30
 8001626:	d055      	beq.n	80016d4 <HAL_TIM_IRQHandler+0x120>
 8001628:	f7ff ff6d 	bl	8001506 <HAL_TIM_IC_CaptureCallback>
 800162c:	2300      	movs	r3, #0
 800162e:	7723      	strb	r3, [r4, #28]
 8001630:	2310      	movs	r3, #16
 8001632:	421e      	tst	r6, r3
 8001634:	d011      	beq.n	800165a <HAL_TIM_IRQHandler+0xa6>
 8001636:	421d      	tst	r5, r3
 8001638:	d00f      	beq.n	800165a <HAL_TIM_IRQHandler+0xa6>
 800163a:	2211      	movs	r2, #17
 800163c:	6823      	ldr	r3, [r4, #0]
 800163e:	4252      	negs	r2, r2
 8001640:	611a      	str	r2, [r3, #16]
 8001642:	3219      	adds	r2, #25
 8001644:	7722      	strb	r2, [r4, #28]
 8001646:	69da      	ldr	r2, [r3, #28]
 8001648:	23c0      	movs	r3, #192	@ 0xc0
 800164a:	009b      	lsls	r3, r3, #2
 800164c:	0020      	movs	r0, r4
 800164e:	421a      	tst	r2, r3
 8001650:	d046      	beq.n	80016e0 <HAL_TIM_IRQHandler+0x12c>
 8001652:	f7ff ff58 	bl	8001506 <HAL_TIM_IC_CaptureCallback>
 8001656:	2300      	movs	r3, #0
 8001658:	7723      	strb	r3, [r4, #28]
 800165a:	2301      	movs	r3, #1
 800165c:	421e      	tst	r6, r3
 800165e:	d008      	beq.n	8001672 <HAL_TIM_IRQHandler+0xbe>
 8001660:	421d      	tst	r5, r3
 8001662:	d006      	beq.n	8001672 <HAL_TIM_IRQHandler+0xbe>
 8001664:	2202      	movs	r2, #2
 8001666:	6823      	ldr	r3, [r4, #0]
 8001668:	4252      	negs	r2, r2
 800166a:	0020      	movs	r0, r4
 800166c:	611a      	str	r2, [r3, #16]
 800166e:	f7ff ff48 	bl	8001502 <HAL_TIM_PeriodElapsedCallback>
 8001672:	2380      	movs	r3, #128	@ 0x80
 8001674:	421e      	tst	r6, r3
 8001676:	d008      	beq.n	800168a <HAL_TIM_IRQHandler+0xd6>
 8001678:	421d      	tst	r5, r3
 800167a:	d006      	beq.n	800168a <HAL_TIM_IRQHandler+0xd6>
 800167c:	2281      	movs	r2, #129	@ 0x81
 800167e:	6823      	ldr	r3, [r4, #0]
 8001680:	4252      	negs	r2, r2
 8001682:	0020      	movs	r0, r4
 8001684:	611a      	str	r2, [r3, #16]
 8001686:	f000 fbb0 	bl	8001dea <HAL_TIMEx_BreakCallback>
 800168a:	2340      	movs	r3, #64	@ 0x40
 800168c:	421e      	tst	r6, r3
 800168e:	d008      	beq.n	80016a2 <HAL_TIM_IRQHandler+0xee>
 8001690:	421d      	tst	r5, r3
 8001692:	d006      	beq.n	80016a2 <HAL_TIM_IRQHandler+0xee>
 8001694:	2241      	movs	r2, #65	@ 0x41
 8001696:	6823      	ldr	r3, [r4, #0]
 8001698:	4252      	negs	r2, r2
 800169a:	0020      	movs	r0, r4
 800169c:	611a      	str	r2, [r3, #16]
 800169e:	f7ff ff88 	bl	80015b2 <HAL_TIM_TriggerCallback>
 80016a2:	2320      	movs	r3, #32
 80016a4:	421e      	tst	r6, r3
 80016a6:	d008      	beq.n	80016ba <HAL_TIM_IRQHandler+0x106>
 80016a8:	421d      	tst	r5, r3
 80016aa:	d006      	beq.n	80016ba <HAL_TIM_IRQHandler+0x106>
 80016ac:	2221      	movs	r2, #33	@ 0x21
 80016ae:	6823      	ldr	r3, [r4, #0]
 80016b0:	4252      	negs	r2, r2
 80016b2:	0020      	movs	r0, r4
 80016b4:	611a      	str	r2, [r3, #16]
 80016b6:	f000 fb97 	bl	8001de8 <HAL_TIMEx_CommutCallback>
 80016ba:	bd70      	pop	{r4, r5, r6, pc}
 80016bc:	f7ff ff22 	bl	8001504 <HAL_TIM_OC_DelayElapsedCallback>
 80016c0:	0020      	movs	r0, r4
 80016c2:	f7fe ff95 	bl	80005f0 <HAL_TIM_PWM_PulseFinishedCallback>
 80016c6:	e789      	b.n	80015dc <HAL_TIM_IRQHandler+0x28>
 80016c8:	f7ff ff1c 	bl	8001504 <HAL_TIM_OC_DelayElapsedCallback>
 80016cc:	0020      	movs	r0, r4
 80016ce:	f7fe ff8f 	bl	80005f0 <HAL_TIM_PWM_PulseFinishedCallback>
 80016d2:	e798      	b.n	8001606 <HAL_TIM_IRQHandler+0x52>
 80016d4:	f7ff ff16 	bl	8001504 <HAL_TIM_OC_DelayElapsedCallback>
 80016d8:	0020      	movs	r0, r4
 80016da:	f7fe ff89 	bl	80005f0 <HAL_TIM_PWM_PulseFinishedCallback>
 80016de:	e7a5      	b.n	800162c <HAL_TIM_IRQHandler+0x78>
 80016e0:	f7ff ff10 	bl	8001504 <HAL_TIM_OC_DelayElapsedCallback>
 80016e4:	0020      	movs	r0, r4
 80016e6:	f7fe ff83 	bl	80005f0 <HAL_TIM_PWM_PulseFinishedCallback>
 80016ea:	e7b4      	b.n	8001656 <HAL_TIM_IRQHandler+0xa2>

080016ec <HAL_TIM_ErrorCallback>:
 80016ec:	4770      	bx	lr

080016ee <TIM_DMAError>:
 80016ee:	b510      	push	{r4, lr}
 80016f0:	6a44      	ldr	r4, [r0, #36]	@ 0x24
 80016f2:	6a63      	ldr	r3, [r4, #36]	@ 0x24
 80016f4:	4283      	cmp	r3, r0
 80016f6:	d105      	bne.n	8001704 <TIM_DMAError+0x16>
 80016f8:	2301      	movs	r3, #1
 80016fa:	0022      	movs	r2, r4
 80016fc:	7723      	strb	r3, [r4, #28]
 80016fe:	323e      	adds	r2, #62	@ 0x3e
 8001700:	7013      	strb	r3, [r2, #0]
 8001702:	e008      	b.n	8001716 <TIM_DMAError+0x28>
 8001704:	6aa3      	ldr	r3, [r4, #40]	@ 0x28
 8001706:	4283      	cmp	r3, r0
 8001708:	d10b      	bne.n	8001722 <TIM_DMAError+0x34>
 800170a:	2302      	movs	r3, #2
 800170c:	7723      	strb	r3, [r4, #28]
 800170e:	0023      	movs	r3, r4
 8001710:	2201      	movs	r2, #1
 8001712:	333f      	adds	r3, #63	@ 0x3f
 8001714:	701a      	strb	r2, [r3, #0]
 8001716:	0020      	movs	r0, r4
 8001718:	f7ff ffe8 	bl	80016ec <HAL_TIM_ErrorCallback>
 800171c:	2300      	movs	r3, #0
 800171e:	7723      	strb	r3, [r4, #28]
 8001720:	bd10      	pop	{r4, pc}
 8001722:	6ae2      	ldr	r2, [r4, #44]	@ 0x2c
 8001724:	2301      	movs	r3, #1
 8001726:	4282      	cmp	r2, r0
 8001728:	d104      	bne.n	8001734 <TIM_DMAError+0x46>
 800172a:	2204      	movs	r2, #4
 800172c:	7722      	strb	r2, [r4, #28]
 800172e:	0022      	movs	r2, r4
 8001730:	3240      	adds	r2, #64	@ 0x40
 8001732:	e7e5      	b.n	8001700 <TIM_DMAError+0x12>
 8001734:	6b22      	ldr	r2, [r4, #48]	@ 0x30
 8001736:	4282      	cmp	r2, r0
 8001738:	d104      	bne.n	8001744 <TIM_DMAError+0x56>
 800173a:	2208      	movs	r2, #8
 800173c:	7722      	strb	r2, [r4, #28]
 800173e:	0022      	movs	r2, r4
 8001740:	3241      	adds	r2, #65	@ 0x41
 8001742:	e7dd      	b.n	8001700 <TIM_DMAError+0x12>
 8001744:	0022      	movs	r2, r4
 8001746:	323d      	adds	r2, #61	@ 0x3d
 8001748:	e7da      	b.n	8001700 <TIM_DMAError+0x12>
	...

0800174c <TIM_Base_SetConfig>:
 800174c:	4a1c      	ldr	r2, [pc, #112]	@ (80017c0 <TIM_Base_SetConfig+0x74>)
 800174e:	b510      	push	{r4, lr}
 8001750:	6803      	ldr	r3, [r0, #0]
 8001752:	4290      	cmp	r0, r2
 8001754:	d002      	beq.n	800175c <TIM_Base_SetConfig+0x10>
 8001756:	4c1b      	ldr	r4, [pc, #108]	@ (80017c4 <TIM_Base_SetConfig+0x78>)
 8001758:	42a0      	cmp	r0, r4
 800175a:	d108      	bne.n	800176e <TIM_Base_SetConfig+0x22>
 800175c:	2470      	movs	r4, #112	@ 0x70
 800175e:	43a3      	bics	r3, r4
 8001760:	684c      	ldr	r4, [r1, #4]
 8001762:	4323      	orrs	r3, r4
 8001764:	4290      	cmp	r0, r2
 8001766:	d00b      	beq.n	8001780 <TIM_Base_SetConfig+0x34>
 8001768:	4c16      	ldr	r4, [pc, #88]	@ (80017c4 <TIM_Base_SetConfig+0x78>)
 800176a:	42a0      	cmp	r0, r4
 800176c:	d008      	beq.n	8001780 <TIM_Base_SetConfig+0x34>
 800176e:	4c16      	ldr	r4, [pc, #88]	@ (80017c8 <TIM_Base_SetConfig+0x7c>)
 8001770:	42a0      	cmp	r0, r4
 8001772:	d005      	beq.n	8001780 <TIM_Base_SetConfig+0x34>
 8001774:	4c15      	ldr	r4, [pc, #84]	@ (80017cc <TIM_Base_SetConfig+0x80>)
 8001776:	42a0      	cmp	r0, r4
 8001778:	d002      	beq.n	8001780 <TIM_Base_SetConfig+0x34>
 800177a:	4c15      	ldr	r4, [pc, #84]	@ (80017d0 <TIM_Base_SetConfig+0x84>)
 800177c:	42a0      	cmp	r0, r4
 800177e:	d103      	bne.n	8001788 <TIM_Base_SetConfig+0x3c>
 8001780:	4c14      	ldr	r4, [pc, #80]	@ (80017d4 <TIM_Base_SetConfig+0x88>)
 8001782:	401c      	ands	r4, r3
 8001784:	68cb      	ldr	r3, [r1, #12]
 8001786:	4323      	orrs	r3, r4
 8001788:	2480      	movs	r4, #128	@ 0x80
 800178a:	43a3      	bics	r3, r4
 800178c:	694c      	ldr	r4, [r1, #20]
 800178e:	4323      	orrs	r3, r4
 8001790:	6003      	str	r3, [r0, #0]
 8001792:	688b      	ldr	r3, [r1, #8]
 8001794:	62c3      	str	r3, [r0, #44]	@ 0x2c
 8001796:	680b      	ldr	r3, [r1, #0]
 8001798:	6283      	str	r3, [r0, #40]	@ 0x28
 800179a:	4290      	cmp	r0, r2
 800179c:	d005      	beq.n	80017aa <TIM_Base_SetConfig+0x5e>
 800179e:	4b0b      	ldr	r3, [pc, #44]	@ (80017cc <TIM_Base_SetConfig+0x80>)
 80017a0:	4298      	cmp	r0, r3
 80017a2:	d002      	beq.n	80017aa <TIM_Base_SetConfig+0x5e>
 80017a4:	4b0a      	ldr	r3, [pc, #40]	@ (80017d0 <TIM_Base_SetConfig+0x84>)
 80017a6:	4298      	cmp	r0, r3
 80017a8:	d101      	bne.n	80017ae <TIM_Base_SetConfig+0x62>
 80017aa:	690b      	ldr	r3, [r1, #16]
 80017ac:	6303      	str	r3, [r0, #48]	@ 0x30
 80017ae:	2201      	movs	r2, #1
 80017b0:	6142      	str	r2, [r0, #20]
 80017b2:	6903      	ldr	r3, [r0, #16]
 80017b4:	4213      	tst	r3, r2
 80017b6:	d002      	beq.n	80017be <TIM_Base_SetConfig+0x72>
 80017b8:	6903      	ldr	r3, [r0, #16]
 80017ba:	4393      	bics	r3, r2
 80017bc:	6103      	str	r3, [r0, #16]
 80017be:	bd10      	pop	{r4, pc}
 80017c0:	40012c00 	.word	0x40012c00
 80017c4:	40000400 	.word	0x40000400
 80017c8:	40002000 	.word	0x40002000
 80017cc:	40014400 	.word	0x40014400
 80017d0:	40014800 	.word	0x40014800
 80017d4:	fffffcff 	.word	0xfffffcff

080017d8 <HAL_TIM_Base_Init>:
 80017d8:	b570      	push	{r4, r5, r6, lr}
 80017da:	0004      	movs	r4, r0
 80017dc:	2001      	movs	r0, #1
 80017de:	2c00      	cmp	r4, #0
 80017e0:	d021      	beq.n	8001826 <HAL_TIM_Base_Init+0x4e>
 80017e2:	0025      	movs	r5, r4
 80017e4:	353d      	adds	r5, #61	@ 0x3d
 80017e6:	782b      	ldrb	r3, [r5, #0]
 80017e8:	b2da      	uxtb	r2, r3
 80017ea:	2b00      	cmp	r3, #0
 80017ec:	d105      	bne.n	80017fa <HAL_TIM_Base_Init+0x22>
 80017ee:	0023      	movs	r3, r4
 80017f0:	333c      	adds	r3, #60	@ 0x3c
 80017f2:	0020      	movs	r0, r4
 80017f4:	701a      	strb	r2, [r3, #0]
 80017f6:	f7fe ff1f 	bl	8000638 <HAL_TIM_Base_MspInit>
 80017fa:	2302      	movs	r3, #2
 80017fc:	702b      	strb	r3, [r5, #0]
 80017fe:	6820      	ldr	r0, [r4, #0]
 8001800:	1d21      	adds	r1, r4, #4
 8001802:	f7ff ffa3 	bl	800174c <TIM_Base_SetConfig>
 8001806:	0022      	movs	r2, r4
 8001808:	2301      	movs	r3, #1
 800180a:	2000      	movs	r0, #0
 800180c:	3246      	adds	r2, #70	@ 0x46
 800180e:	7013      	strb	r3, [r2, #0]
 8001810:	3445      	adds	r4, #69	@ 0x45
 8001812:	3a08      	subs	r2, #8
 8001814:	7013      	strb	r3, [r2, #0]
 8001816:	7053      	strb	r3, [r2, #1]
 8001818:	7093      	strb	r3, [r2, #2]
 800181a:	70d3      	strb	r3, [r2, #3]
 800181c:	7113      	strb	r3, [r2, #4]
 800181e:	7153      	strb	r3, [r2, #5]
 8001820:	7193      	strb	r3, [r2, #6]
 8001822:	7023      	strb	r3, [r4, #0]
 8001824:	702b      	strb	r3, [r5, #0]
 8001826:	bd70      	pop	{r4, r5, r6, pc}

08001828 <HAL_TIM_PWM_Init>:
 8001828:	b570      	push	{r4, r5, r6, lr}
 800182a:	0004      	movs	r4, r0
 800182c:	2001      	movs	r0, #1
 800182e:	2c00      	cmp	r4, #0
 8001830:	d021      	beq.n	8001876 <HAL_TIM_PWM_Init+0x4e>
 8001832:	0025      	movs	r5, r4
 8001834:	353d      	adds	r5, #61	@ 0x3d
 8001836:	782b      	ldrb	r3, [r5, #0]
 8001838:	b2da      	uxtb	r2, r3
 800183a:	2b00      	cmp	r3, #0
 800183c:	d105      	bne.n	800184a <HAL_TIM_PWM_Init+0x22>
 800183e:	0023      	movs	r3, r4
 8001840:	333c      	adds	r3, #60	@ 0x3c
 8001842:	0020      	movs	r0, r4
 8001844:	701a      	strb	r2, [r3, #0]
 8001846:	f7ff fe5b 	bl	8001500 <HAL_TIM_PWM_MspInit>
 800184a:	2302      	movs	r3, #2
 800184c:	702b      	strb	r3, [r5, #0]
 800184e:	6820      	ldr	r0, [r4, #0]
 8001850:	1d21      	adds	r1, r4, #4
 8001852:	f7ff ff7b 	bl	800174c <TIM_Base_SetConfig>
 8001856:	0022      	movs	r2, r4
 8001858:	2301      	movs	r3, #1
 800185a:	2000      	movs	r0, #0
 800185c:	3246      	adds	r2, #70	@ 0x46
 800185e:	7013      	strb	r3, [r2, #0]
 8001860:	3445      	adds	r4, #69	@ 0x45
 8001862:	3a08      	subs	r2, #8
 8001864:	7013      	strb	r3, [r2, #0]
 8001866:	7053      	strb	r3, [r2, #1]
 8001868:	7093      	strb	r3, [r2, #2]
 800186a:	70d3      	strb	r3, [r2, #3]
 800186c:	7113      	strb	r3, [r2, #4]
 800186e:	7153      	strb	r3, [r2, #5]
 8001870:	7193      	strb	r3, [r2, #6]
 8001872:	7023      	strb	r3, [r4, #0]
 8001874:	702b      	strb	r3, [r5, #0]
 8001876:	bd70      	pop	{r4, r5, r6, pc}

08001878 <TIM_OC2_SetConfig>:
 8001878:	2210      	movs	r2, #16
 800187a:	b570      	push	{r4, r5, r6, lr}
 800187c:	6a05      	ldr	r5, [r0, #32]
 800187e:	6a03      	ldr	r3, [r0, #32]
 8001880:	4c16      	ldr	r4, [pc, #88]	@ (80018dc <TIM_OC2_SetConfig+0x64>)
 8001882:	4393      	bics	r3, r2
 8001884:	6203      	str	r3, [r0, #32]
 8001886:	6842      	ldr	r2, [r0, #4]
 8001888:	6983      	ldr	r3, [r0, #24]
 800188a:	4023      	ands	r3, r4
 800188c:	680c      	ldr	r4, [r1, #0]
 800188e:	0224      	lsls	r4, r4, #8
 8001890:	431c      	orrs	r4, r3
 8001892:	2320      	movs	r3, #32
 8001894:	439d      	bics	r5, r3
 8001896:	688b      	ldr	r3, [r1, #8]
 8001898:	011b      	lsls	r3, r3, #4
 800189a:	432b      	orrs	r3, r5
 800189c:	4d10      	ldr	r5, [pc, #64]	@ (80018e0 <TIM_OC2_SetConfig+0x68>)
 800189e:	42a8      	cmp	r0, r5
 80018a0:	d10f      	bne.n	80018c2 <TIM_OC2_SetConfig+0x4a>
 80018a2:	2580      	movs	r5, #128	@ 0x80
 80018a4:	43ab      	bics	r3, r5
 80018a6:	001e      	movs	r6, r3
 80018a8:	68cb      	ldr	r3, [r1, #12]
 80018aa:	3d40      	subs	r5, #64	@ 0x40
 80018ac:	011b      	lsls	r3, r3, #4
 80018ae:	4333      	orrs	r3, r6
 80018b0:	43ab      	bics	r3, r5
 80018b2:	4d0c      	ldr	r5, [pc, #48]	@ (80018e4 <TIM_OC2_SetConfig+0x6c>)
 80018b4:	694e      	ldr	r6, [r1, #20]
 80018b6:	4015      	ands	r5, r2
 80018b8:	698a      	ldr	r2, [r1, #24]
 80018ba:	4332      	orrs	r2, r6
 80018bc:	0092      	lsls	r2, r2, #2
 80018be:	432a      	orrs	r2, r5
 80018c0:	e005      	b.n	80018ce <TIM_OC2_SetConfig+0x56>
 80018c2:	4d09      	ldr	r5, [pc, #36]	@ (80018e8 <TIM_OC2_SetConfig+0x70>)
 80018c4:	42a8      	cmp	r0, r5
 80018c6:	d0f4      	beq.n	80018b2 <TIM_OC2_SetConfig+0x3a>
 80018c8:	4d08      	ldr	r5, [pc, #32]	@ (80018ec <TIM_OC2_SetConfig+0x74>)
 80018ca:	42a8      	cmp	r0, r5
 80018cc:	d0f1      	beq.n	80018b2 <TIM_OC2_SetConfig+0x3a>
 80018ce:	6042      	str	r2, [r0, #4]
 80018d0:	684a      	ldr	r2, [r1, #4]
 80018d2:	6184      	str	r4, [r0, #24]
 80018d4:	6382      	str	r2, [r0, #56]	@ 0x38
 80018d6:	6203      	str	r3, [r0, #32]
 80018d8:	bd70      	pop	{r4, r5, r6, pc}
 80018da:	46c0      	nop			@ (mov r8, r8)
 80018dc:	ffff8cff 	.word	0xffff8cff
 80018e0:	40012c00 	.word	0x40012c00
 80018e4:	fffff3ff 	.word	0xfffff3ff
 80018e8:	40014400 	.word	0x40014400
 80018ec:	40014800 	.word	0x40014800

080018f0 <HAL_TIM_PWM_ConfigChannel>:
 80018f0:	b5f8      	push	{r3, r4, r5, r6, r7, lr}
 80018f2:	0006      	movs	r6, r0
 80018f4:	363c      	adds	r6, #60	@ 0x3c
 80018f6:	0015      	movs	r5, r2
 80018f8:	7832      	ldrb	r2, [r6, #0]
 80018fa:	0003      	movs	r3, r0
 80018fc:	000c      	movs	r4, r1
 80018fe:	2002      	movs	r0, #2
 8001900:	2a01      	cmp	r2, #1
 8001902:	d00a      	beq.n	800191a <HAL_TIM_PWM_ConfigChannel+0x2a>
 8001904:	3801      	subs	r0, #1
 8001906:	7030      	strb	r0, [r6, #0]
 8001908:	2d08      	cmp	r5, #8
 800190a:	d03f      	beq.n	800198c <HAL_TIM_PWM_ConfigChannel+0x9c>
 800190c:	d806      	bhi.n	800191c <HAL_TIM_PWM_ConfigChannel+0x2c>
 800190e:	2d00      	cmp	r5, #0
 8001910:	d019      	beq.n	8001946 <HAL_TIM_PWM_ConfigChannel+0x56>
 8001912:	2d04      	cmp	r5, #4
 8001914:	d029      	beq.n	800196a <HAL_TIM_PWM_ConfigChannel+0x7a>
 8001916:	2300      	movs	r3, #0
 8001918:	7033      	strb	r3, [r6, #0]
 800191a:	bdf8      	pop	{r3, r4, r5, r6, r7, pc}
 800191c:	2d0c      	cmp	r5, #12
 800191e:	d1fa      	bne.n	8001916 <HAL_TIM_PWM_ConfigChannel+0x26>
 8001920:	681d      	ldr	r5, [r3, #0]
 8001922:	0028      	movs	r0, r5
 8001924:	f7ff fdb8 	bl	8001498 <TIM_OC4_SetConfig>
 8001928:	2380      	movs	r3, #128	@ 0x80
 800192a:	69ea      	ldr	r2, [r5, #28]
 800192c:	011b      	lsls	r3, r3, #4
 800192e:	4313      	orrs	r3, r2
 8001930:	61eb      	str	r3, [r5, #28]
 8001932:	69eb      	ldr	r3, [r5, #28]
 8001934:	4a1d      	ldr	r2, [pc, #116]	@ (80019ac <HAL_TIM_PWM_ConfigChannel+0xbc>)
 8001936:	4013      	ands	r3, r2
 8001938:	61eb      	str	r3, [r5, #28]
 800193a:	6923      	ldr	r3, [r4, #16]
 800193c:	69ea      	ldr	r2, [r5, #28]
 800193e:	021b      	lsls	r3, r3, #8
 8001940:	4313      	orrs	r3, r2
 8001942:	61eb      	str	r3, [r5, #28]
 8001944:	e00f      	b.n	8001966 <HAL_TIM_PWM_ConfigChannel+0x76>
 8001946:	681d      	ldr	r5, [r3, #0]
 8001948:	0028      	movs	r0, r5
 800194a:	f7ff fd29 	bl	80013a0 <TIM_OC1_SetConfig>
 800194e:	2308      	movs	r3, #8
 8001950:	69aa      	ldr	r2, [r5, #24]
 8001952:	4313      	orrs	r3, r2
 8001954:	2204      	movs	r2, #4
 8001956:	61ab      	str	r3, [r5, #24]
 8001958:	69ab      	ldr	r3, [r5, #24]
 800195a:	4393      	bics	r3, r2
 800195c:	61ab      	str	r3, [r5, #24]
 800195e:	69ab      	ldr	r3, [r5, #24]
 8001960:	6922      	ldr	r2, [r4, #16]
 8001962:	4313      	orrs	r3, r2
 8001964:	61ab      	str	r3, [r5, #24]
 8001966:	2000      	movs	r0, #0
 8001968:	e7d5      	b.n	8001916 <HAL_TIM_PWM_ConfigChannel+0x26>
 800196a:	681d      	ldr	r5, [r3, #0]
 800196c:	0028      	movs	r0, r5
 800196e:	f7ff ff83 	bl	8001878 <TIM_OC2_SetConfig>
 8001972:	2380      	movs	r3, #128	@ 0x80
 8001974:	69aa      	ldr	r2, [r5, #24]
 8001976:	011b      	lsls	r3, r3, #4
 8001978:	4313      	orrs	r3, r2
 800197a:	61ab      	str	r3, [r5, #24]
 800197c:	69ab      	ldr	r3, [r5, #24]
 800197e:	4a0b      	ldr	r2, [pc, #44]	@ (80019ac <HAL_TIM_PWM_ConfigChannel+0xbc>)
 8001980:	4013      	ands	r3, r2
 8001982:	61ab      	str	r3, [r5, #24]
 8001984:	6923      	ldr	r3, [r4, #16]
 8001986:	69aa      	ldr	r2, [r5, #24]
 8001988:	021b      	lsls	r3, r3, #8
 800198a:	e7ea      	b.n	8001962 <HAL_TIM_PWM_ConfigChannel+0x72>
 800198c:	681f      	ldr	r7, [r3, #0]
 800198e:	0038      	movs	r0, r7
 8001990:	f7ff fd42 	bl	8001418 <TIM_OC3_SetConfig>
 8001994:	2204      	movs	r2, #4
 8001996:	69fb      	ldr	r3, [r7, #28]
 8001998:	431d      	orrs	r5, r3
 800199a:	61fd      	str	r5, [r7, #28]
 800199c:	69fb      	ldr	r3, [r7, #28]
 800199e:	4393      	bics	r3, r2
 80019a0:	61fb      	str	r3, [r7, #28]
 80019a2:	69fb      	ldr	r3, [r7, #28]
 80019a4:	6922      	ldr	r2, [r4, #16]
 80019a6:	4313      	orrs	r3, r2
 80019a8:	61fb      	str	r3, [r7, #28]
 80019aa:	e7dc      	b.n	8001966 <HAL_TIM_PWM_ConfigChannel+0x76>
 80019ac:	fffffbff 	.word	0xfffffbff

080019b0 <TIM_ETR_SetConfig>:
 80019b0:	b530      	push	{r4, r5, lr}
 80019b2:	6884      	ldr	r4, [r0, #8]
 80019b4:	4d03      	ldr	r5, [pc, #12]	@ (80019c4 <TIM_ETR_SetConfig+0x14>)
 80019b6:	430a      	orrs	r2, r1
 80019b8:	021b      	lsls	r3, r3, #8
 80019ba:	402c      	ands	r4, r5
 80019bc:	4313      	orrs	r3, r2
 80019be:	4323      	orrs	r3, r4
 80019c0:	6083      	str	r3, [r0, #8]
 80019c2:	bd30      	pop	{r4, r5, pc}
 80019c4:	ffff00ff 	.word	0xffff00ff

080019c8 <HAL_TIM_ConfigClockSource>:
 80019c8:	b5f8      	push	{r3, r4, r5, r6, r7, lr}
 80019ca:	0005      	movs	r5, r0
 80019cc:	2202      	movs	r2, #2
 80019ce:	353c      	adds	r5, #60	@ 0x3c
 80019d0:	782c      	ldrb	r4, [r5, #0]
 80019d2:	0003      	movs	r3, r0
 80019d4:	0010      	movs	r0, r2
 80019d6:	2c01      	cmp	r4, #1
 80019d8:	d01b      	beq.n	8001a12 <HAL_TIM_ConfigClockSource+0x4a>
 80019da:	001e      	movs	r6, r3
 80019dc:	3801      	subs	r0, #1
 80019de:	363d      	adds	r6, #61	@ 0x3d
 80019e0:	7028      	strb	r0, [r5, #0]
 80019e2:	7032      	strb	r2, [r6, #0]
 80019e4:	681c      	ldr	r4, [r3, #0]
 80019e6:	4a41      	ldr	r2, [pc, #260]	@ (8001aec <HAL_TIM_ConfigClockSource+0x124>)
 80019e8:	68a3      	ldr	r3, [r4, #8]
 80019ea:	4013      	ands	r3, r2
 80019ec:	60a3      	str	r3, [r4, #8]
 80019ee:	680b      	ldr	r3, [r1, #0]
 80019f0:	2b60      	cmp	r3, #96	@ 0x60
 80019f2:	d04e      	beq.n	8001a92 <HAL_TIM_ConfigClockSource+0xca>
 80019f4:	d82d      	bhi.n	8001a52 <HAL_TIM_ConfigClockSource+0x8a>
 80019f6:	2b40      	cmp	r3, #64	@ 0x40
 80019f8:	d062      	beq.n	8001ac0 <HAL_TIM_ConfigClockSource+0xf8>
 80019fa:	d813      	bhi.n	8001a24 <HAL_TIM_ConfigClockSource+0x5c>
 80019fc:	2b20      	cmp	r3, #32
 80019fe:	d00b      	beq.n	8001a18 <HAL_TIM_ConfigClockSource+0x50>
 8001a00:	d808      	bhi.n	8001a14 <HAL_TIM_ConfigClockSource+0x4c>
 8001a02:	2210      	movs	r2, #16
 8001a04:	0019      	movs	r1, r3
 8001a06:	4391      	bics	r1, r2
 8001a08:	d006      	beq.n	8001a18 <HAL_TIM_ConfigClockSource+0x50>
 8001a0a:	2301      	movs	r3, #1
 8001a0c:	7033      	strb	r3, [r6, #0]
 8001a0e:	2300      	movs	r3, #0
 8001a10:	702b      	strb	r3, [r5, #0]
 8001a12:	bdf8      	pop	{r3, r4, r5, r6, r7, pc}
 8001a14:	2b30      	cmp	r3, #48	@ 0x30
 8001a16:	d1f8      	bne.n	8001a0a <HAL_TIM_ConfigClockSource+0x42>
 8001a18:	2170      	movs	r1, #112	@ 0x70
 8001a1a:	68a2      	ldr	r2, [r4, #8]
 8001a1c:	438a      	bics	r2, r1
 8001a1e:	4313      	orrs	r3, r2
 8001a20:	2207      	movs	r2, #7
 8001a22:	e028      	b.n	8001a76 <HAL_TIM_ConfigClockSource+0xae>
 8001a24:	2b50      	cmp	r3, #80	@ 0x50
 8001a26:	d1f0      	bne.n	8001a0a <HAL_TIM_ConfigClockSource+0x42>
 8001a28:	684a      	ldr	r2, [r1, #4]
 8001a2a:	68cb      	ldr	r3, [r1, #12]
 8001a2c:	6a21      	ldr	r1, [r4, #32]
 8001a2e:	6a27      	ldr	r7, [r4, #32]
 8001a30:	011b      	lsls	r3, r3, #4
 8001a32:	4387      	bics	r7, r0
 8001a34:	6227      	str	r7, [r4, #32]
 8001a36:	27f0      	movs	r7, #240	@ 0xf0
 8001a38:	69a0      	ldr	r0, [r4, #24]
 8001a3a:	43b8      	bics	r0, r7
 8001a3c:	4303      	orrs	r3, r0
 8001a3e:	200a      	movs	r0, #10
 8001a40:	61a3      	str	r3, [r4, #24]
 8001a42:	2370      	movs	r3, #112	@ 0x70
 8001a44:	4381      	bics	r1, r0
 8001a46:	430a      	orrs	r2, r1
 8001a48:	6222      	str	r2, [r4, #32]
 8001a4a:	68a2      	ldr	r2, [r4, #8]
 8001a4c:	439a      	bics	r2, r3
 8001a4e:	3b19      	subs	r3, #25
 8001a50:	e011      	b.n	8001a76 <HAL_TIM_ConfigClockSource+0xae>
 8001a52:	2280      	movs	r2, #128	@ 0x80
 8001a54:	0152      	lsls	r2, r2, #5
 8001a56:	4293      	cmp	r3, r2
 8001a58:	d00f      	beq.n	8001a7a <HAL_TIM_ConfigClockSource+0xb2>
 8001a5a:	2280      	movs	r2, #128	@ 0x80
 8001a5c:	0192      	lsls	r2, r2, #6
 8001a5e:	4293      	cmp	r3, r2
 8001a60:	d00d      	beq.n	8001a7e <HAL_TIM_ConfigClockSource+0xb6>
 8001a62:	2b70      	cmp	r3, #112	@ 0x70
 8001a64:	d1d1      	bne.n	8001a0a <HAL_TIM_ConfigClockSource+0x42>
 8001a66:	68cb      	ldr	r3, [r1, #12]
 8001a68:	684a      	ldr	r2, [r1, #4]
 8001a6a:	0020      	movs	r0, r4
 8001a6c:	6889      	ldr	r1, [r1, #8]
 8001a6e:	f7ff ff9f 	bl	80019b0 <TIM_ETR_SetConfig>
 8001a72:	2377      	movs	r3, #119	@ 0x77
 8001a74:	68a2      	ldr	r2, [r4, #8]
 8001a76:	4313      	orrs	r3, r2
 8001a78:	60a3      	str	r3, [r4, #8]
 8001a7a:	2000      	movs	r0, #0
 8001a7c:	e7c5      	b.n	8001a0a <HAL_TIM_ConfigClockSource+0x42>
 8001a7e:	68cb      	ldr	r3, [r1, #12]
 8001a80:	684a      	ldr	r2, [r1, #4]
 8001a82:	0020      	movs	r0, r4
 8001a84:	6889      	ldr	r1, [r1, #8]
 8001a86:	f7ff ff93 	bl	80019b0 <TIM_ETR_SetConfig>
 8001a8a:	2380      	movs	r3, #128	@ 0x80
 8001a8c:	68a2      	ldr	r2, [r4, #8]
 8001a8e:	01db      	lsls	r3, r3, #7
 8001a90:	e7f1      	b.n	8001a76 <HAL_TIM_ConfigClockSource+0xae>
 8001a92:	2710      	movs	r7, #16
 8001a94:	684b      	ldr	r3, [r1, #4]
 8001a96:	68ca      	ldr	r2, [r1, #12]
 8001a98:	6a21      	ldr	r1, [r4, #32]
 8001a9a:	6a20      	ldr	r0, [r4, #32]
 8001a9c:	0312      	lsls	r2, r2, #12
 8001a9e:	43b8      	bics	r0, r7
 8001aa0:	6220      	str	r0, [r4, #32]
 8001aa2:	69a0      	ldr	r0, [r4, #24]
 8001aa4:	4f12      	ldr	r7, [pc, #72]	@ (8001af0 <HAL_TIM_ConfigClockSource+0x128>)
 8001aa6:	011b      	lsls	r3, r3, #4
 8001aa8:	4038      	ands	r0, r7
 8001aaa:	4302      	orrs	r2, r0
 8001aac:	20a0      	movs	r0, #160	@ 0xa0
 8001aae:	4381      	bics	r1, r0
 8001ab0:	430b      	orrs	r3, r1
 8001ab2:	61a2      	str	r2, [r4, #24]
 8001ab4:	6223      	str	r3, [r4, #32]
 8001ab6:	2370      	movs	r3, #112	@ 0x70
 8001ab8:	68a2      	ldr	r2, [r4, #8]
 8001aba:	439a      	bics	r2, r3
 8001abc:	3b09      	subs	r3, #9
 8001abe:	e7da      	b.n	8001a76 <HAL_TIM_ConfigClockSource+0xae>
 8001ac0:	684a      	ldr	r2, [r1, #4]
 8001ac2:	68cb      	ldr	r3, [r1, #12]
 8001ac4:	6a21      	ldr	r1, [r4, #32]
 8001ac6:	6a27      	ldr	r7, [r4, #32]
 8001ac8:	011b      	lsls	r3, r3, #4
 8001aca:	4387      	bics	r7, r0
 8001acc:	6227      	str	r7, [r4, #32]
 8001ace:	27f0      	movs	r7, #240	@ 0xf0
 8001ad0:	69a0      	ldr	r0, [r4, #24]
 8001ad2:	43b8      	bics	r0, r7
 8001ad4:	4303      	orrs	r3, r0
 8001ad6:	200a      	movs	r0, #10
 8001ad8:	61a3      	str	r3, [r4, #24]
 8001ada:	2370      	movs	r3, #112	@ 0x70
 8001adc:	4381      	bics	r1, r0
 8001ade:	430a      	orrs	r2, r1
 8001ae0:	6222      	str	r2, [r4, #32]
 8001ae2:	68a2      	ldr	r2, [r4, #8]
 8001ae4:	439a      	bics	r2, r3
 8001ae6:	3b29      	subs	r3, #41	@ 0x29
 8001ae8:	e7c5      	b.n	8001a76 <HAL_TIM_ConfigClockSource+0xae>
 8001aea:	46c0      	nop			@ (mov r8, r8)
 8001aec:	ffff0088 	.word	0xffff0088
 8001af0:	ffff0fff 	.word	0xffff0fff

08001af4 <TIM_CCxChannelCmd>:
 8001af4:	231f      	movs	r3, #31
 8001af6:	b510      	push	{r4, lr}
 8001af8:	2401      	movs	r4, #1
 8001afa:	4019      	ands	r1, r3
 8001afc:	408c      	lsls	r4, r1
 8001afe:	408a      	lsls	r2, r1
 8001b00:	6a03      	ldr	r3, [r0, #32]
 8001b02:	43a3      	bics	r3, r4
 8001b04:	6203      	str	r3, [r0, #32]
 8001b06:	6a03      	ldr	r3, [r0, #32]
 8001b08:	431a      	orrs	r2, r3
 8001b0a:	6202      	str	r2, [r0, #32]
 8001b0c:	bd10      	pop	{r4, pc}
	...

08001b10 <HAL_TIM_OC_Start_DMA>:
 8001b10:	b570      	push	{r4, r5, r6, lr}
 8001b12:	000e      	movs	r6, r1
 8001b14:	0005      	movs	r5, r0
 8001b16:	0011      	movs	r1, r2
 8001b18:	0002      	movs	r2, r0
 8001b1a:	2e00      	cmp	r6, #0
 8001b1c:	d109      	bne.n	8001b32 <HAL_TIM_OC_Start_DMA+0x22>
 8001b1e:	323e      	adds	r2, #62	@ 0x3e
 8001b20:	7814      	ldrb	r4, [r2, #0]
 8001b22:	2002      	movs	r0, #2
 8001b24:	3c02      	subs	r4, #2
 8001b26:	4262      	negs	r2, r4
 8001b28:	4154      	adcs	r4, r2
 8001b2a:	b2e4      	uxtb	r4, r4
 8001b2c:	2c00      	cmp	r4, #0
 8001b2e:	d00a      	beq.n	8001b46 <HAL_TIM_OC_Start_DMA+0x36>
 8001b30:	bd70      	pop	{r4, r5, r6, pc}
 8001b32:	2e04      	cmp	r6, #4
 8001b34:	d101      	bne.n	8001b3a <HAL_TIM_OC_Start_DMA+0x2a>
 8001b36:	323f      	adds	r2, #63	@ 0x3f
 8001b38:	e7f2      	b.n	8001b20 <HAL_TIM_OC_Start_DMA+0x10>
 8001b3a:	2e08      	cmp	r6, #8
 8001b3c:	d101      	bne.n	8001b42 <HAL_TIM_OC_Start_DMA+0x32>
 8001b3e:	3240      	adds	r2, #64	@ 0x40
 8001b40:	e7ee      	b.n	8001b20 <HAL_TIM_OC_Start_DMA+0x10>
 8001b42:	3241      	adds	r2, #65	@ 0x41
 8001b44:	e7ec      	b.n	8001b20 <HAL_TIM_OC_Start_DMA+0x10>
 8001b46:	002a      	movs	r2, r5
 8001b48:	2e00      	cmp	r6, #0
 8001b4a:	d109      	bne.n	8001b60 <HAL_TIM_OC_Start_DMA+0x50>
 8001b4c:	323e      	adds	r2, #62	@ 0x3e
 8001b4e:	7812      	ldrb	r2, [r2, #0]
 8001b50:	3a01      	subs	r2, #1
 8001b52:	4250      	negs	r0, r2
 8001b54:	4142      	adcs	r2, r0
 8001b56:	b2d2      	uxtb	r2, r2
 8001b58:	2a00      	cmp	r2, #0
 8001b5a:	d10b      	bne.n	8001b74 <HAL_TIM_OC_Start_DMA+0x64>
 8001b5c:	2001      	movs	r0, #1
 8001b5e:	e7e7      	b.n	8001b30 <HAL_TIM_OC_Start_DMA+0x20>
 8001b60:	2e04      	cmp	r6, #4
 8001b62:	d101      	bne.n	8001b68 <HAL_TIM_OC_Start_DMA+0x58>
 8001b64:	323f      	adds	r2, #63	@ 0x3f
 8001b66:	e7f2      	b.n	8001b4e <HAL_TIM_OC_Start_DMA+0x3e>
 8001b68:	2e08      	cmp	r6, #8
 8001b6a:	d101      	bne.n	8001b70 <HAL_TIM_OC_Start_DMA+0x60>
 8001b6c:	3240      	adds	r2, #64	@ 0x40
 8001b6e:	e7ee      	b.n	8001b4e <HAL_TIM_OC_Start_DMA+0x3e>
 8001b70:	3241      	adds	r2, #65	@ 0x41
 8001b72:	e7ec      	b.n	8001b4e <HAL_TIM_OC_Start_DMA+0x3e>
 8001b74:	2900      	cmp	r1, #0
 8001b76:	d0f1      	beq.n	8001b5c <HAL_TIM_OC_Start_DMA+0x4c>
 8001b78:	2b00      	cmp	r3, #0
 8001b7a:	d0ef      	beq.n	8001b5c <HAL_TIM_OC_Start_DMA+0x4c>
 8001b7c:	2202      	movs	r2, #2
 8001b7e:	0028      	movs	r0, r5
 8001b80:	2e00      	cmp	r6, #0
 8001b82:	d131      	bne.n	8001be8 <HAL_TIM_OC_Start_DMA+0xd8>
 8001b84:	303e      	adds	r0, #62	@ 0x3e
 8001b86:	7002      	strb	r2, [r0, #0]
 8001b88:	6a68      	ldr	r0, [r5, #36]	@ 0x24
 8001b8a:	4a3d      	ldr	r2, [pc, #244]	@ (8001c80 <HAL_TIM_OC_Start_DMA+0x170>)
 8001b8c:	6282      	str	r2, [r0, #40]	@ 0x28
 8001b8e:	4a3d      	ldr	r2, [pc, #244]	@ (8001c84 <HAL_TIM_OC_Start_DMA+0x174>)
 8001b90:	62c2      	str	r2, [r0, #44]	@ 0x2c
 8001b92:	4a3d      	ldr	r2, [pc, #244]	@ (8001c88 <HAL_TIM_OC_Start_DMA+0x178>)
 8001b94:	6302      	str	r2, [r0, #48]	@ 0x30
 8001b96:	682a      	ldr	r2, [r5, #0]
 8001b98:	3234      	adds	r2, #52	@ 0x34
 8001b9a:	f7fe fffb 	bl	8000b94 <HAL_DMA_Start_IT>
 8001b9e:	2800      	cmp	r0, #0
 8001ba0:	d1dc      	bne.n	8001b5c <HAL_TIM_OC_Start_DMA+0x4c>
 8001ba2:	2380      	movs	r3, #128	@ 0x80
 8001ba4:	682a      	ldr	r2, [r5, #0]
 8001ba6:	009b      	lsls	r3, r3, #2
 8001ba8:	68d1      	ldr	r1, [r2, #12]
 8001baa:	682c      	ldr	r4, [r5, #0]
 8001bac:	430b      	orrs	r3, r1
 8001bae:	60d3      	str	r3, [r2, #12]
 8001bb0:	0031      	movs	r1, r6
 8001bb2:	2201      	movs	r2, #1
 8001bb4:	0020      	movs	r0, r4
 8001bb6:	f7ff ff9d 	bl	8001af4 <TIM_CCxChannelCmd>
 8001bba:	4a34      	ldr	r2, [pc, #208]	@ (8001c8c <HAL_TIM_OC_Start_DMA+0x17c>)
 8001bbc:	4294      	cmp	r4, r2
 8001bbe:	d056      	beq.n	8001c6e <HAL_TIM_OC_Start_DMA+0x15e>
 8001bc0:	4b33      	ldr	r3, [pc, #204]	@ (8001c90 <HAL_TIM_OC_Start_DMA+0x180>)
 8001bc2:	429c      	cmp	r4, r3
 8001bc4:	d053      	beq.n	8001c6e <HAL_TIM_OC_Start_DMA+0x15e>
 8001bc6:	4b33      	ldr	r3, [pc, #204]	@ (8001c94 <HAL_TIM_OC_Start_DMA+0x184>)
 8001bc8:	429c      	cmp	r4, r3
 8001bca:	d050      	beq.n	8001c6e <HAL_TIM_OC_Start_DMA+0x15e>
 8001bcc:	4b32      	ldr	r3, [pc, #200]	@ (8001c98 <HAL_TIM_OC_Start_DMA+0x188>)
 8001bce:	429c      	cmp	r4, r3
 8001bd0:	d104      	bne.n	8001bdc <HAL_TIM_OC_Start_DMA+0xcc>
 8001bd2:	2207      	movs	r2, #7
 8001bd4:	68a3      	ldr	r3, [r4, #8]
 8001bd6:	4013      	ands	r3, r2
 8001bd8:	2b06      	cmp	r3, #6
 8001bda:	d003      	beq.n	8001be4 <HAL_TIM_OC_Start_DMA+0xd4>
 8001bdc:	2301      	movs	r3, #1
 8001bde:	6822      	ldr	r2, [r4, #0]
 8001be0:	4313      	orrs	r3, r2
 8001be2:	6023      	str	r3, [r4, #0]
 8001be4:	2000      	movs	r0, #0
 8001be6:	e7a3      	b.n	8001b30 <HAL_TIM_OC_Start_DMA+0x20>
 8001be8:	2e04      	cmp	r6, #4
 8001bea:	d113      	bne.n	8001c14 <HAL_TIM_OC_Start_DMA+0x104>
 8001bec:	303f      	adds	r0, #63	@ 0x3f
 8001bee:	7002      	strb	r2, [r0, #0]
 8001bf0:	6aa8      	ldr	r0, [r5, #40]	@ 0x28
 8001bf2:	4a23      	ldr	r2, [pc, #140]	@ (8001c80 <HAL_TIM_OC_Start_DMA+0x170>)
 8001bf4:	6282      	str	r2, [r0, #40]	@ 0x28
 8001bf6:	4a23      	ldr	r2, [pc, #140]	@ (8001c84 <HAL_TIM_OC_Start_DMA+0x174>)
 8001bf8:	62c2      	str	r2, [r0, #44]	@ 0x2c
 8001bfa:	4a23      	ldr	r2, [pc, #140]	@ (8001c88 <HAL_TIM_OC_Start_DMA+0x178>)
 8001bfc:	6302      	str	r2, [r0, #48]	@ 0x30
 8001bfe:	682a      	ldr	r2, [r5, #0]
 8001c00:	3238      	adds	r2, #56	@ 0x38
 8001c02:	f7fe ffc7 	bl	8000b94 <HAL_DMA_Start_IT>
 8001c06:	2800      	cmp	r0, #0
 8001c08:	d1a8      	bne.n	8001b5c <HAL_TIM_OC_Start_DMA+0x4c>
 8001c0a:	2380      	movs	r3, #128	@ 0x80
 8001c0c:	682a      	ldr	r2, [r5, #0]
 8001c0e:	00db      	lsls	r3, r3, #3
 8001c10:	68d1      	ldr	r1, [r2, #12]
 8001c12:	e7ca      	b.n	8001baa <HAL_TIM_OC_Start_DMA+0x9a>
 8001c14:	2e08      	cmp	r6, #8
 8001c16:	d113      	bne.n	8001c40 <HAL_TIM_OC_Start_DMA+0x130>
 8001c18:	3040      	adds	r0, #64	@ 0x40
 8001c1a:	7002      	strb	r2, [r0, #0]
 8001c1c:	6ae8      	ldr	r0, [r5, #44]	@ 0x2c
 8001c1e:	4a18      	ldr	r2, [pc, #96]	@ (8001c80 <HAL_TIM_OC_Start_DMA+0x170>)
 8001c20:	6282      	str	r2, [r0, #40]	@ 0x28
 8001c22:	4a18      	ldr	r2, [pc, #96]	@ (8001c84 <HAL_TIM_OC_Start_DMA+0x174>)
 8001c24:	62c2      	str	r2, [r0, #44]	@ 0x2c
 8001c26:	4a18      	ldr	r2, [pc, #96]	@ (8001c88 <HAL_TIM_OC_Start_DMA+0x178>)
 8001c28:	6302      	str	r2, [r0, #48]	@ 0x30
 8001c2a:	682a      	ldr	r2, [r5, #0]
 8001c2c:	323c      	adds	r2, #60	@ 0x3c
 8001c2e:	f7fe ffb1 	bl	8000b94 <HAL_DMA_Start_IT>
 8001c32:	2800      	cmp	r0, #0
 8001c34:	d192      	bne.n	8001b5c <HAL_TIM_OC_Start_DMA+0x4c>
 8001c36:	2380      	movs	r3, #128	@ 0x80
 8001c38:	682a      	ldr	r2, [r5, #0]
 8001c3a:	011b      	lsls	r3, r3, #4
 8001c3c:	68d1      	ldr	r1, [r2, #12]
 8001c3e:	e7b4      	b.n	8001baa <HAL_TIM_OC_Start_DMA+0x9a>
 8001c40:	3041      	adds	r0, #65	@ 0x41
 8001c42:	7002      	strb	r2, [r0, #0]
 8001c44:	2e0c      	cmp	r6, #12
 8001c46:	d189      	bne.n	8001b5c <HAL_TIM_OC_Start_DMA+0x4c>
 8001c48:	6b28      	ldr	r0, [r5, #48]	@ 0x30
 8001c4a:	4a0d      	ldr	r2, [pc, #52]	@ (8001c80 <HAL_TIM_OC_Start_DMA+0x170>)
 8001c4c:	6282      	str	r2, [r0, #40]	@ 0x28
 8001c4e:	4a0d      	ldr	r2, [pc, #52]	@ (8001c84 <HAL_TIM_OC_Start_DMA+0x174>)
 8001c50:	62c2      	str	r2, [r0, #44]	@ 0x2c
 8001c52:	4a0d      	ldr	r2, [pc, #52]	@ (8001c88 <HAL_TIM_OC_Start_DMA+0x178>)
 8001c54:	6302      	str	r2, [r0, #48]	@ 0x30
 8001c56:	682a      	ldr	r2, [r5, #0]
 8001c58:	3240      	adds	r2, #64	@ 0x40
 8001c5a:	f7fe ff9b 	bl	8000b94 <HAL_DMA_Start_IT>
 8001c5e:	2800      	cmp	r0, #0
 8001c60:	d000      	beq.n	8001c64 <HAL_TIM_OC_Start_DMA+0x154>
 8001c62:	e77b      	b.n	8001b5c <HAL_TIM_OC_Start_DMA+0x4c>
 8001c64:	2380      	movs	r3, #128	@ 0x80
 8001c66:	682a      	ldr	r2, [r5, #0]
 8001c68:	015b      	lsls	r3, r3, #5
 8001c6a:	68d1      	ldr	r1, [r2, #12]
 8001c6c:	e79d      	b.n	8001baa <HAL_TIM_OC_Start_DMA+0x9a>
 8001c6e:	2380      	movs	r3, #128	@ 0x80
 8001c70:	6c61      	ldr	r1, [r4, #68]	@ 0x44
 8001c72:	021b      	lsls	r3, r3, #8
 8001c74:	430b      	orrs	r3, r1
 8001c76:	6463      	str	r3, [r4, #68]	@ 0x44
 8001c78:	4294      	cmp	r4, r2
 8001c7a:	d0aa      	beq.n	8001bd2 <HAL_TIM_OC_Start_DMA+0xc2>
 8001c7c:	e7a6      	b.n	8001bcc <HAL_TIM_OC_Start_DMA+0xbc>
 8001c7e:	46c0      	nop			@ (mov r8, r8)
 8001c80:	08001509 	.word	0x08001509
 8001c84:	0800157b 	.word	0x0800157b
 8001c88:	080016ef 	.word	0x080016ef
 8001c8c:	40012c00 	.word	0x40012c00
 8001c90:	40014400 	.word	0x40014400
 8001c94:	40014800 	.word	0x40014800
 8001c98:	40000400 	.word	0x40000400

08001c9c <HAL_TIM_PWM_Start_DMA>:
 8001c9c:	b510      	push	{r4, lr}
 8001c9e:	f7ff ff37 	bl	8001b10 <HAL_TIM_OC_Start_DMA>
 8001ca2:	bd10      	pop	{r4, pc}

08001ca4 <HAL_TIM_OC_Stop_DMA>:
 8001ca4:	b570      	push	{r4, r5, r6, lr}
 8001ca6:	0004      	movs	r4, r0
 8001ca8:	000e      	movs	r6, r1
 8001caa:	2908      	cmp	r1, #8
 8001cac:	d04b      	beq.n	8001d46 <HAL_TIM_OC_Stop_DMA+0xa2>
 8001cae:	d805      	bhi.n	8001cbc <HAL_TIM_OC_Stop_DMA+0x18>
 8001cb0:	2900      	cmp	r1, #0
 8001cb2:	d00c      	beq.n	8001cce <HAL_TIM_OC_Stop_DMA+0x2a>
 8001cb4:	2904      	cmp	r1, #4
 8001cb6:	d03f      	beq.n	8001d38 <HAL_TIM_OC_Stop_DMA+0x94>
 8001cb8:	2001      	movs	r0, #1
 8001cba:	bd70      	pop	{r4, r5, r6, pc}
 8001cbc:	290c      	cmp	r1, #12
 8001cbe:	d1fb      	bne.n	8001cb8 <HAL_TIM_OC_Stop_DMA+0x14>
 8001cc0:	6802      	ldr	r2, [r0, #0]
 8001cc2:	4929      	ldr	r1, [pc, #164]	@ (8001d68 <HAL_TIM_OC_Stop_DMA+0xc4>)
 8001cc4:	68d3      	ldr	r3, [r2, #12]
 8001cc6:	6b00      	ldr	r0, [r0, #48]	@ 0x30
 8001cc8:	400b      	ands	r3, r1
 8001cca:	60d3      	str	r3, [r2, #12]
 8001ccc:	e005      	b.n	8001cda <HAL_TIM_OC_Stop_DMA+0x36>
 8001cce:	6802      	ldr	r2, [r0, #0]
 8001cd0:	4926      	ldr	r1, [pc, #152]	@ (8001d6c <HAL_TIM_OC_Stop_DMA+0xc8>)
 8001cd2:	68d3      	ldr	r3, [r2, #12]
 8001cd4:	6a40      	ldr	r0, [r0, #36]	@ 0x24
 8001cd6:	400b      	ands	r3, r1
 8001cd8:	60d3      	str	r3, [r2, #12]
 8001cda:	f7fe ff97 	bl	8000c0c <HAL_DMA_Abort_IT>
 8001cde:	6825      	ldr	r5, [r4, #0]
 8001ce0:	2200      	movs	r2, #0
 8001ce2:	0031      	movs	r1, r6
 8001ce4:	0028      	movs	r0, r5
 8001ce6:	f7ff ff05 	bl	8001af4 <TIM_CCxChannelCmd>
 8001cea:	4b21      	ldr	r3, [pc, #132]	@ (8001d70 <HAL_TIM_OC_Stop_DMA+0xcc>)
 8001cec:	4a21      	ldr	r2, [pc, #132]	@ (8001d74 <HAL_TIM_OC_Stop_DMA+0xd0>)
 8001cee:	429d      	cmp	r5, r3
 8001cf0:	d005      	beq.n	8001cfe <HAL_TIM_OC_Stop_DMA+0x5a>
 8001cf2:	4b21      	ldr	r3, [pc, #132]	@ (8001d78 <HAL_TIM_OC_Stop_DMA+0xd4>)
 8001cf4:	429d      	cmp	r5, r3
 8001cf6:	d002      	beq.n	8001cfe <HAL_TIM_OC_Stop_DMA+0x5a>
 8001cf8:	4b20      	ldr	r3, [pc, #128]	@ (8001d7c <HAL_TIM_OC_Stop_DMA+0xd8>)
 8001cfa:	429d      	cmp	r5, r3
 8001cfc:	d10a      	bne.n	8001d14 <HAL_TIM_OC_Stop_DMA+0x70>
 8001cfe:	6a2b      	ldr	r3, [r5, #32]
 8001d00:	4213      	tst	r3, r2
 8001d02:	d107      	bne.n	8001d14 <HAL_TIM_OC_Stop_DMA+0x70>
 8001d04:	6a29      	ldr	r1, [r5, #32]
 8001d06:	4b1e      	ldr	r3, [pc, #120]	@ (8001d80 <HAL_TIM_OC_Stop_DMA+0xdc>)
 8001d08:	4219      	tst	r1, r3
 8001d0a:	d103      	bne.n	8001d14 <HAL_TIM_OC_Stop_DMA+0x70>
 8001d0c:	6c6b      	ldr	r3, [r5, #68]	@ 0x44
 8001d0e:	491d      	ldr	r1, [pc, #116]	@ (8001d84 <HAL_TIM_OC_Stop_DMA+0xe0>)
 8001d10:	400b      	ands	r3, r1
 8001d12:	646b      	str	r3, [r5, #68]	@ 0x44
 8001d14:	6a2b      	ldr	r3, [r5, #32]
 8001d16:	4213      	tst	r3, r2
 8001d18:	d107      	bne.n	8001d2a <HAL_TIM_OC_Stop_DMA+0x86>
 8001d1a:	6a2a      	ldr	r2, [r5, #32]
 8001d1c:	4b18      	ldr	r3, [pc, #96]	@ (8001d80 <HAL_TIM_OC_Stop_DMA+0xdc>)
 8001d1e:	421a      	tst	r2, r3
 8001d20:	d103      	bne.n	8001d2a <HAL_TIM_OC_Stop_DMA+0x86>
 8001d22:	2201      	movs	r2, #1
 8001d24:	682b      	ldr	r3, [r5, #0]
 8001d26:	4393      	bics	r3, r2
 8001d28:	602b      	str	r3, [r5, #0]
 8001d2a:	2301      	movs	r3, #1
 8001d2c:	2e00      	cmp	r6, #0
 8001d2e:	d111      	bne.n	8001d54 <HAL_TIM_OC_Stop_DMA+0xb0>
 8001d30:	343e      	adds	r4, #62	@ 0x3e
 8001d32:	2000      	movs	r0, #0
 8001d34:	7023      	strb	r3, [r4, #0]
 8001d36:	e7c0      	b.n	8001cba <HAL_TIM_OC_Stop_DMA+0x16>
 8001d38:	6802      	ldr	r2, [r0, #0]
 8001d3a:	4913      	ldr	r1, [pc, #76]	@ (8001d88 <HAL_TIM_OC_Stop_DMA+0xe4>)
 8001d3c:	68d3      	ldr	r3, [r2, #12]
 8001d3e:	6a80      	ldr	r0, [r0, #40]	@ 0x28
 8001d40:	400b      	ands	r3, r1
 8001d42:	60d3      	str	r3, [r2, #12]
 8001d44:	e7c9      	b.n	8001cda <HAL_TIM_OC_Stop_DMA+0x36>
 8001d46:	6802      	ldr	r2, [r0, #0]
 8001d48:	4910      	ldr	r1, [pc, #64]	@ (8001d8c <HAL_TIM_OC_Stop_DMA+0xe8>)
 8001d4a:	68d3      	ldr	r3, [r2, #12]
 8001d4c:	6ac0      	ldr	r0, [r0, #44]	@ 0x2c
 8001d4e:	400b      	ands	r3, r1
 8001d50:	60d3      	str	r3, [r2, #12]
 8001d52:	e7c2      	b.n	8001cda <HAL_TIM_OC_Stop_DMA+0x36>
 8001d54:	2e04      	cmp	r6, #4
 8001d56:	d101      	bne.n	8001d5c <HAL_TIM_OC_Stop_DMA+0xb8>
 8001d58:	343f      	adds	r4, #63	@ 0x3f
 8001d5a:	e7ea      	b.n	8001d32 <HAL_TIM_OC_Stop_DMA+0x8e>
 8001d5c:	2e08      	cmp	r6, #8
 8001d5e:	d101      	bne.n	8001d64 <HAL_TIM_OC_Stop_DMA+0xc0>
 8001d60:	3440      	adds	r4, #64	@ 0x40
 8001d62:	e7e6      	b.n	8001d32 <HAL_TIM_OC_Stop_DMA+0x8e>
 8001d64:	3441      	adds	r4, #65	@ 0x41
 8001d66:	e7e4      	b.n	8001d32 <HAL_TIM_OC_Stop_DMA+0x8e>
 8001d68:	ffffefff 	.word	0xffffefff
 8001d6c:	fffffdff 	.word	0xfffffdff
 8001d70:	40012c00 	.word	0x40012c00
 8001d74:	00001111 	.word	0x00001111
 8001d78:	40014400 	.word	0x40014400
 8001d7c:	40014800 	.word	0x40014800
 8001d80:	00000444 	.word	0x00000444
 8001d84:	ffff7fff 	.word	0xffff7fff
 8001d88:	fffffbff 	.word	0xfffffbff
 8001d8c:	fffff7ff 	.word	0xfffff7ff

08001d90 <HAL_TIM_PWM_Stop_DMA>:
 8001d90:	b510      	push	{r4, lr}
 8001d92:	f7ff ff87 	bl	8001ca4 <HAL_TIM_OC_Stop_DMA>
 8001d96:	bd10      	pop	{r4, pc}

08001d98 <HAL_TIMEx_MasterConfigSynchronization>:
 8001d98:	b570      	push	{r4, r5, r6, lr}
 8001d9a:	0004      	movs	r4, r0
 8001d9c:	2202      	movs	r2, #2
 8001d9e:	343c      	adds	r4, #60	@ 0x3c
 8001da0:	7825      	ldrb	r5, [r4, #0]
 8001da2:	0003      	movs	r3, r0
 8001da4:	0010      	movs	r0, r2
 8001da6:	2d01      	cmp	r5, #1
 8001da8:	d019      	beq.n	8001dde <HAL_TIMEx_MasterConfigSynchronization+0x46>
 8001daa:	001d      	movs	r5, r3
 8001dac:	2670      	movs	r6, #112	@ 0x70
 8001dae:	353d      	adds	r5, #61	@ 0x3d
 8001db0:	702a      	strb	r2, [r5, #0]
 8001db2:	681b      	ldr	r3, [r3, #0]
 8001db4:	6858      	ldr	r0, [r3, #4]
 8001db6:	689a      	ldr	r2, [r3, #8]
 8001db8:	43b0      	bics	r0, r6
 8001dba:	680e      	ldr	r6, [r1, #0]
 8001dbc:	4330      	orrs	r0, r6
 8001dbe:	6058      	str	r0, [r3, #4]
 8001dc0:	4807      	ldr	r0, [pc, #28]	@ (8001de0 <HAL_TIMEx_MasterConfigSynchronization+0x48>)
 8001dc2:	4283      	cmp	r3, r0
 8001dc4:	d002      	beq.n	8001dcc <HAL_TIMEx_MasterConfigSynchronization+0x34>
 8001dc6:	4807      	ldr	r0, [pc, #28]	@ (8001de4 <HAL_TIMEx_MasterConfigSynchronization+0x4c>)
 8001dc8:	4283      	cmp	r3, r0
 8001dca:	d104      	bne.n	8001dd6 <HAL_TIMEx_MasterConfigSynchronization+0x3e>
 8001dcc:	2080      	movs	r0, #128	@ 0x80
 8001dce:	6849      	ldr	r1, [r1, #4]
 8001dd0:	4382      	bics	r2, r0
 8001dd2:	430a      	orrs	r2, r1
 8001dd4:	609a      	str	r2, [r3, #8]
 8001dd6:	2301      	movs	r3, #1
 8001dd8:	2000      	movs	r0, #0
 8001dda:	702b      	strb	r3, [r5, #0]
 8001ddc:	7020      	strb	r0, [r4, #0]
 8001dde:	bd70      	pop	{r4, r5, r6, pc}
 8001de0:	40012c00 	.word	0x40012c00
 8001de4:	40000400 	.word	0x40000400

08001de8 <HAL_TIMEx_CommutCallback>:
 8001de8:	4770      	bx	lr

08001dea <HAL_TIMEx_BreakCallback>:
 8001dea:	4770      	bx	lr

08001dec <memset>:
 8001dec:	0003      	movs	r3, r0
 8001dee:	1882      	adds	r2, r0, r2
 8001df0:	4293      	cmp	r3, r2
 8001df2:	d100      	bne.n	8001df6 <memset+0xa>
 8001df4:	4770      	bx	lr
 8001df6:	7019      	strb	r1, [r3, #0]
 8001df8:	3301      	adds	r3, #1
 8001dfa:	e7f9      	b.n	8001df0 <memset+0x4>

08001dfc <__libc_init_array>:
 8001dfc:	b570      	push	{r4, r5, r6, lr}
 8001dfe:	2600      	movs	r6, #0
 8001e00:	4c0c      	ldr	r4, [pc, #48]	@ (8001e34 <__libc_init_array+0x38>)
 8001e02:	4d0d      	ldr	r5, [pc, #52]	@ (8001e38 <__libc_init_array+0x3c>)
 8001e04:	1b64      	subs	r4, r4, r5
 8001e06:	10a4      	asrs	r4, r4, #2
 8001e08:	42a6      	cmp	r6, r4
 8001e0a:	d109      	bne.n	8001e20 <__libc_init_array+0x24>
 8001e0c:	2600      	movs	r6, #0
 8001e0e:	f000 f819 	bl	8001e44 <_init>
 8001e12:	4c0a      	ldr	r4, [pc, #40]	@ (8001e3c <__libc_init_array+0x40>)
 8001e14:	4d0a      	ldr	r5, [pc, #40]	@ (8001e40 <__libc_init_array+0x44>)
 8001e16:	1b64      	subs	r4, r4, r5
 8001e18:	10a4      	asrs	r4, r4, #2
 8001e1a:	42a6      	cmp	r6, r4
 8001e1c:	d105      	bne.n	8001e2a <__libc_init_array+0x2e>
 8001e1e:	bd70      	pop	{r4, r5, r6, pc}
 8001e20:	00b3      	lsls	r3, r6, #2
 8001e22:	58eb      	ldr	r3, [r5, r3]
 8001e24:	4798      	blx	r3
 8001e26:	3601      	adds	r6, #1
 8001e28:	e7ee      	b.n	8001e08 <__libc_init_array+0xc>
 8001e2a:	00b3      	lsls	r3, r6, #2
 8001e2c:	58eb      	ldr	r3, [r5, r3]
 8001e2e:	4798      	blx	r3
 8001e30:	3601      	adds	r6, #1
 8001e32:	e7f2      	b.n	8001e1a <__libc_init_array+0x1e>
 8001e34:	08001e8c 	.word	0x08001e8c
 8001e38:	08001e8c 	.word	0x08001e8c
 8001e3c:	08001e90 	.word	0x08001e90
 8001e40:	08001e8c 	.word	0x08001e8c

08001e44 <_init>:
 8001e44:	b5f8      	push	{r3, r4, r5, r6, r7, lr}
 8001e46:	46c0      	nop			@ (mov r8, r8)
 8001e48:	bcf8      	pop	{r3, r4, r5, r6, r7}
 8001e4a:	bc08      	pop	{r3}
 8001e4c:	469e      	mov	lr, r3
 8001e4e:	4770      	bx	lr

08001e50 <_fini>:
 8001e50:	b5f8      	push	{r3, r4, r5, r6, r7, lr}
 8001e52:	46c0      	nop			@ (mov r8, r8)
 8001e54:	bcf8      	pop	{r3, r4, r5, r6, r7}
 8001e56:	bc08      	pop	{r3}
 8001e58:	469e      	mov	lr, r3
 8001e5a:	4770      	bx	lr
